SF:/home/gil/Documents/Projects/proc-server/backend/src/api_pages/controller.rs
FN:122,_RNvNtNtNtCs3JGymTfL39z_7backend9api_pages10controller4test19create_test_db_page
FN:130,_RNvNtNtNtCs3JGymTfL39z_7backend9api_pages10controller4test17create_page_table
FN:137,_RNvNtNtNtCs3JGymTfL39z_7backend9api_pages10controller4test17delete_page_table
FN:145,_RNvNtNtNtCs3JGymTfL39z_7backend9api_pages10controller4tests_14add_page_to_db
FN:163,_RNvNtNtNtCs3JGymTfL39z_7backend9api_pages10controller4tests_32add_page_via_api_with_db_storage
FN:197,_RNvNtNtNtCs3JGymTfL39z_7backend9api_pages10controller4tests_13get_all_pages
FN:220,_RNvNtNtNtCs3JGymTfL39z_7backend9api_pages10controller4tests_17get_pages_via_api
FN:236,_RNvNtNtNtCs3JGymTfL39z_7backend9api_pages10controller4tests_22get_page_by_id_via_api
FN:277,_RNvNtNtNtCs3JGymTfL39z_7backend9api_pages10controller4tests_30get_page_by_id_via_api_failing
FN:299,_RNvNtNtNtCs3JGymTfL39z_7backend9api_pages10controller4tests_25delete_page_by_id_via_api
FN:322,_RNvNtNtNtCs3JGymTfL39z_7backend9api_pages10controller4tests_33delete_page_by_id_via_api_failing
FN:339,_RNvNtNtNtCs3JGymTfL39z_7backend9api_pages10controller4tests_22update_page_by_page_id
FN:370,_RNvNtNtNtCs3JGymTfL39z_7backend9api_pages10controller4tests_30update_page_by_page_id_failing
FN:86,_RNvNtNtCs3JGymTfL39z_7backend9api_pages10controller5stage
FN:16,_RNvNtNtCs3JGymTfL39z_7backend9api_pages10controller7options
FN:15,_RNvMNtNtCs3JGymTfL39z_7backend9api_pages10controllerNtB2_7options9into_info
FN:15,_RNvNvMNtNtCs3JGymTfL39z_7backend9api_pages10controllerNtB4_7options9into_info22monomorphized_function
FN:15,_RNvMNtNtCs3JGymTfL39z_7backend9api_pages10controllerNtB2_7options10into_route
FN:19,_RNvNtNtCs3JGymTfL39z_7backend9api_pages10controller20pages_delete_options
FN:18,_RNvMs_NtNtCs3JGymTfL39z_7backend9api_pages10controllerNtB4_20pages_delete_options9into_info
FN:18,_RNvNvMs_NtNtCs3JGymTfL39z_7backend9api_pages10controllerNtB6_20pages_delete_options9into_info22monomorphized_function
FN:18,_RNvMs_NtNtCs3JGymTfL39z_7backend9api_pages10controllerNtB4_20pages_delete_options10into_route
FN:22,_RNvNtNtCs3JGymTfL39z_7backend9api_pages10controller8add_page
FN:21,_RNvMs0_NtNtCs3JGymTfL39z_7backend9api_pages10controllerNtB5_8add_page9into_info
FN:21,_RNvNvMs0_NtNtCs3JGymTfL39z_7backend9api_pages10controllerNtB7_8add_page9into_info22monomorphized_function
FN:21,_RNvMs0_NtNtCs3JGymTfL39z_7backend9api_pages10controllerNtB5_8add_page10into_route
FN:37,_RNvNtNtCs3JGymTfL39z_7backend9api_pages10controller7get_all
FN:36,_RNvMs1_NtNtCs3JGymTfL39z_7backend9api_pages10controllerNtB5_7get_all9into_info
FN:36,_RNvNvMs1_NtNtCs3JGymTfL39z_7backend9api_pages10controllerNtB7_7get_all9into_info22monomorphized_function
FN:36,_RNvMs1_NtNtCs3JGymTfL39z_7backend9api_pages10controllerNtB5_7get_all10into_route
FN:45,_RNvNtNtCs3JGymTfL39z_7backend9api_pages10controller14get_by_page_id
FN:44,_RNvMs2_NtNtCs3JGymTfL39z_7backend9api_pages10controllerNtB5_14get_by_page_id9into_info
FN:44,_RNvNvMs2_NtNtCs3JGymTfL39z_7backend9api_pages10controllerNtB7_14get_by_page_id9into_info22monomorphized_function
FN:44,_RNvMs2_NtNtCs3JGymTfL39z_7backend9api_pages10controllerNtB5_14get_by_page_id10into_route
FN:59,_RNvNtNtCs3JGymTfL39z_7backend9api_pages10controller17delete_by_page_id
FN:58,_RNvMs3_NtNtCs3JGymTfL39z_7backend9api_pages10controllerNtB5_17delete_by_page_id9into_info
FN:58,_RNvNvMs3_NtNtCs3JGymTfL39z_7backend9api_pages10controllerNtB7_17delete_by_page_id9into_info22monomorphized_function
FN:58,_RNvMs3_NtNtCs3JGymTfL39z_7backend9api_pages10controllerNtB5_17delete_by_page_id10into_route
FN:73,_RNvNtNtCs3JGymTfL39z_7backend9api_pages10controller17update_by_page_pk
FN:72,_RNvMs4_NtNtCs3JGymTfL39z_7backend9api_pages10controllerNtB5_17update_by_page_pk9into_info
FN:72,_RNvNvMs4_NtNtCs3JGymTfL39z_7backend9api_pages10controllerNtB7_17update_by_page_pk9into_info22monomorphized_function
FN:72,_RNvMs4_NtNtCs3JGymTfL39z_7backend9api_pages10controllerNtB5_17update_by_page_pk10into_route
FN:146,_RNCNvNtNtNtCs3JGymTfL39z_7backend9api_pages10controller4tests_14add_page_to_db0B9_
FN:147,_RNCNCNvNtNtNtCs3JGymTfL39z_7backend9api_pages10controller4tests_14add_page_to_db00Bb_
FN:164,_RNCNvNtNtNtCs3JGymTfL39z_7backend9api_pages10controller4tests_32add_page_via_api_with_db_storage0B9_
FN:165,_RNCNCNvNtNtNtCs3JGymTfL39z_7backend9api_pages10controller4tests_32add_page_via_api_with_db_storage00Bb_
FN:198,_RNCNvNtNtNtCs3JGymTfL39z_7backend9api_pages10controller4tests_13get_all_pages0B9_
FN:199,_RNCNCNvNtNtNtCs3JGymTfL39z_7backend9api_pages10controller4tests_13get_all_pages00Bb_
FN:221,_RNCNvNtNtNtCs3JGymTfL39z_7backend9api_pages10controller4tests_17get_pages_via_api0B9_
FN:222,_RNCNCNvNtNtNtCs3JGymTfL39z_7backend9api_pages10controller4tests_17get_pages_via_api00Bb_
FN:237,_RNCNvNtNtNtCs3JGymTfL39z_7backend9api_pages10controller4tests_22get_page_by_id_via_api0B9_
FN:238,_RNCNCNvNtNtNtCs3JGymTfL39z_7backend9api_pages10controller4tests_22get_page_by_id_via_api00Bb_
FN:278,_RNCNvNtNtNtCs3JGymTfL39z_7backend9api_pages10controller4tests_30get_page_by_id_via_api_failing0B9_
FN:279,_RNCNCNvNtNtNtCs3JGymTfL39z_7backend9api_pages10controller4tests_30get_page_by_id_via_api_failing00Bb_
FN:300,_RNCNvNtNtNtCs3JGymTfL39z_7backend9api_pages10controller4tests_25delete_page_by_id_via_api0B9_
FN:301,_RNCNCNvNtNtNtCs3JGymTfL39z_7backend9api_pages10controller4tests_25delete_page_by_id_via_api00Bb_
FN:323,_RNCNvNtNtNtCs3JGymTfL39z_7backend9api_pages10controller4tests_33delete_page_by_id_via_api_failing0B9_
FN:324,_RNCNCNvNtNtNtCs3JGymTfL39z_7backend9api_pages10controller4tests_33delete_page_by_id_via_api_failing00Bb_
FN:340,_RNCNvNtNtNtCs3JGymTfL39z_7backend9api_pages10controller4tests_22update_page_by_page_id0B9_
FN:341,_RNCNCNvNtNtNtCs3JGymTfL39z_7backend9api_pages10controller4tests_22update_page_by_page_id00Bb_
FN:371,_RNCNvNtNtNtCs3JGymTfL39z_7backend9api_pages10controller4tests_30update_page_by_page_id_failing0B9_
FN:372,_RNCNCNvNtNtNtCs3JGymTfL39z_7backend9api_pages10controller4tests_30update_page_by_page_id_failing00Bb_
FN:87,_RNCNvNtNtCs3JGymTfL39z_7backend9api_pages10controller5stage0B7_
FN:87,_RNCNCNvNtNtCs3JGymTfL39z_7backend9api_pages10controller5stage00B9_
FN:15,_RNCNvNvMNtNtCs3JGymTfL39z_7backend9api_pages10controllerNtB6_7options9into_info22monomorphized_function0Ba_
FN:18,_RNCNvNvMs_NtNtCs3JGymTfL39z_7backend9api_pages10controllerNtB8_20pages_delete_options9into_info22monomorphized_function0Bc_
FN:22,_RNCNvNtNtCs3JGymTfL39z_7backend9api_pages10controller8add_page0B7_
FN:24,_RNCNCNvNtNtCs3JGymTfL39z_7backend9api_pages10controller8add_page00B9_
FN:21,_RNCNvNvMs0_NtNtCs3JGymTfL39z_7backend9api_pages10controllerNtB9_8add_page9into_info22monomorphized_function0Bd_
FN:37,_RNCNvNtNtCs3JGymTfL39z_7backend9api_pages10controller7get_all0B7_
FN:38,_RNCNCNvNtNtCs3JGymTfL39z_7backend9api_pages10controller7get_all00B9_
FN:36,_RNCNvNvMs1_NtNtCs3JGymTfL39z_7backend9api_pages10controllerNtB9_7get_all9into_info22monomorphized_function0Bd_
FN:45,_RNCNvNtNtCs3JGymTfL39z_7backend9api_pages10controller14get_by_page_id0B7_
FN:47,_RNCNCNvNtNtCs3JGymTfL39z_7backend9api_pages10controller14get_by_page_id00B9_
FN:44,_RNCNvNvMs2_NtNtCs3JGymTfL39z_7backend9api_pages10controllerNtB9_14get_by_page_id9into_info22monomorphized_function0Bd_
FN:59,_RNCNvNtNtCs3JGymTfL39z_7backend9api_pages10controller17delete_by_page_id0B7_
FN:61,_RNCNCNvNtNtCs3JGymTfL39z_7backend9api_pages10controller17delete_by_page_id00B9_
FN:58,_RNCNvNvMs3_NtNtCs3JGymTfL39z_7backend9api_pages10controllerNtB9_17delete_by_page_id9into_info22monomorphized_function0Bd_
FN:73,_RNCNvNtNtCs3JGymTfL39z_7backend9api_pages10controller17update_by_page_pk0B7_
FN:75,_RNCNCNvNtNtCs3JGymTfL39z_7backend9api_pages10controller17update_by_page_pk00B9_
FN:72,_RNCNvNvMs4_NtNtCs3JGymTfL39z_7backend9api_pages10controllerNtB9_17update_by_page_pk9into_info22monomorphized_function0Bd_
FNDA:5,_RNvNtNtNtCs3JGymTfL39z_7backend9api_pages10controller4test19create_test_db_page
FNDA:10,_RNvNtNtNtCs3JGymTfL39z_7backend9api_pages10controller4test17create_page_table
FNDA:10,_RNvNtNtNtCs3JGymTfL39z_7backend9api_pages10controller4test17delete_page_table
FNDA:1,_RNvNtNtNtCs3JGymTfL39z_7backend9api_pages10controller4tests_14add_page_to_db
FNDA:1,_RNvNtNtNtCs3JGymTfL39z_7backend9api_pages10controller4tests_32add_page_via_api_with_db_storage
FNDA:1,_RNvNtNtNtCs3JGymTfL39z_7backend9api_pages10controller4tests_13get_all_pages
FNDA:1,_RNvNtNtNtCs3JGymTfL39z_7backend9api_pages10controller4tests_17get_pages_via_api
FNDA:1,_RNvNtNtNtCs3JGymTfL39z_7backend9api_pages10controller4tests_22get_page_by_id_via_api
FNDA:1,_RNvNtNtNtCs3JGymTfL39z_7backend9api_pages10controller4tests_30get_page_by_id_via_api_failing
FNDA:1,_RNvNtNtNtCs3JGymTfL39z_7backend9api_pages10controller4tests_25delete_page_by_id_via_api
FNDA:1,_RNvNtNtNtCs3JGymTfL39z_7backend9api_pages10controller4tests_33delete_page_by_id_via_api_failing
FNDA:1,_RNvNtNtNtCs3JGymTfL39z_7backend9api_pages10controller4tests_22update_page_by_page_id
FNDA:1,_RNvNtNtNtCs3JGymTfL39z_7backend9api_pages10controller4tests_30update_page_by_page_id_failing
FNDA:8,_RNvNtNtCs3JGymTfL39z_7backend9api_pages10controller5stage
FNDA:0,_RNvNtNtCs3JGymTfL39z_7backend9api_pages10controller7options
FNDA:8,_RNvMNtNtCs3JGymTfL39z_7backend9api_pages10controllerNtB2_7options9into_info
FNDA:0,_RNvNvMNtNtCs3JGymTfL39z_7backend9api_pages10controllerNtB4_7options9into_info22monomorphized_function
FNDA:8,_RNvMNtNtCs3JGymTfL39z_7backend9api_pages10controllerNtB2_7options10into_route
FNDA:0,_RNvNtNtCs3JGymTfL39z_7backend9api_pages10controller20pages_delete_options
FNDA:8,_RNvMs_NtNtCs3JGymTfL39z_7backend9api_pages10controllerNtB4_20pages_delete_options9into_info
FNDA:0,_RNvNvMs_NtNtCs3JGymTfL39z_7backend9api_pages10controllerNtB6_20pages_delete_options9into_info22monomorphized_function
FNDA:8,_RNvMs_NtNtCs3JGymTfL39z_7backend9api_pages10controllerNtB4_20pages_delete_options10into_route
FNDA:1,_RNvNtNtCs3JGymTfL39z_7backend9api_pages10controller8add_page
FNDA:8,_RNvMs0_NtNtCs3JGymTfL39z_7backend9api_pages10controllerNtB5_8add_page9into_info
FNDA:1,_RNvNvMs0_NtNtCs3JGymTfL39z_7backend9api_pages10controllerNtB7_8add_page9into_info22monomorphized_function
FNDA:8,_RNvMs0_NtNtCs3JGymTfL39z_7backend9api_pages10controllerNtB5_8add_page10into_route
FNDA:1,_RNvNtNtCs3JGymTfL39z_7backend9api_pages10controller7get_all
FNDA:8,_RNvMs1_NtNtCs3JGymTfL39z_7backend9api_pages10controllerNtB5_7get_all9into_info
FNDA:1,_RNvNvMs1_NtNtCs3JGymTfL39z_7backend9api_pages10controllerNtB7_7get_all9into_info22monomorphized_function
FNDA:8,_RNvMs1_NtNtCs3JGymTfL39z_7backend9api_pages10controllerNtB5_7get_all10into_route
FNDA:2,_RNvNtNtCs3JGymTfL39z_7backend9api_pages10controller14get_by_page_id
FNDA:8,_RNvMs2_NtNtCs3JGymTfL39z_7backend9api_pages10controllerNtB5_14get_by_page_id9into_info
FNDA:2,_RNvNvMs2_NtNtCs3JGymTfL39z_7backend9api_pages10controllerNtB7_14get_by_page_id9into_info22monomorphized_function
FNDA:8,_RNvMs2_NtNtCs3JGymTfL39z_7backend9api_pages10controllerNtB5_14get_by_page_id10into_route
FNDA:2,_RNvNtNtCs3JGymTfL39z_7backend9api_pages10controller17delete_by_page_id
FNDA:8,_RNvMs3_NtNtCs3JGymTfL39z_7backend9api_pages10controllerNtB5_17delete_by_page_id9into_info
FNDA:2,_RNvNvMs3_NtNtCs3JGymTfL39z_7backend9api_pages10controllerNtB7_17delete_by_page_id9into_info22monomorphized_function
FNDA:8,_RNvMs3_NtNtCs3JGymTfL39z_7backend9api_pages10controllerNtB5_17delete_by_page_id10into_route
FNDA:2,_RNvNtNtCs3JGymTfL39z_7backend9api_pages10controller17update_by_page_pk
FNDA:8,_RNvMs4_NtNtCs3JGymTfL39z_7backend9api_pages10controllerNtB5_17update_by_page_pk9into_info
FNDA:2,_RNvNvMs4_NtNtCs3JGymTfL39z_7backend9api_pages10controllerNtB7_17update_by_page_pk9into_info22monomorphized_function
FNDA:8,_RNvMs4_NtNtCs3JGymTfL39z_7backend9api_pages10controllerNtB5_17update_by_page_pk10into_route
FNDA:1,_RNCNvNtNtNtCs3JGymTfL39z_7backend9api_pages10controller4tests_14add_page_to_db0B9_
FNDA:1,_RNCNCNvNtNtNtCs3JGymTfL39z_7backend9api_pages10controller4tests_14add_page_to_db00Bb_
FNDA:1,_RNCNvNtNtNtCs3JGymTfL39z_7backend9api_pages10controller4tests_32add_page_via_api_with_db_storage0B9_
FNDA:1,_RNCNCNvNtNtNtCs3JGymTfL39z_7backend9api_pages10controller4tests_32add_page_via_api_with_db_storage00Bb_
FNDA:1,_RNCNvNtNtNtCs3JGymTfL39z_7backend9api_pages10controller4tests_13get_all_pages0B9_
FNDA:1,_RNCNCNvNtNtNtCs3JGymTfL39z_7backend9api_pages10controller4tests_13get_all_pages00Bb_
FNDA:1,_RNCNvNtNtNtCs3JGymTfL39z_7backend9api_pages10controller4tests_17get_pages_via_api0B9_
FNDA:1,_RNCNCNvNtNtNtCs3JGymTfL39z_7backend9api_pages10controller4tests_17get_pages_via_api00Bb_
FNDA:1,_RNCNvNtNtNtCs3JGymTfL39z_7backend9api_pages10controller4tests_22get_page_by_id_via_api0B9_
FNDA:1,_RNCNCNvNtNtNtCs3JGymTfL39z_7backend9api_pages10controller4tests_22get_page_by_id_via_api00Bb_
FNDA:1,_RNCNvNtNtNtCs3JGymTfL39z_7backend9api_pages10controller4tests_30get_page_by_id_via_api_failing0B9_
FNDA:1,_RNCNCNvNtNtNtCs3JGymTfL39z_7backend9api_pages10controller4tests_30get_page_by_id_via_api_failing00Bb_
FNDA:1,_RNCNvNtNtNtCs3JGymTfL39z_7backend9api_pages10controller4tests_25delete_page_by_id_via_api0B9_
FNDA:1,_RNCNCNvNtNtNtCs3JGymTfL39z_7backend9api_pages10controller4tests_25delete_page_by_id_via_api00Bb_
FNDA:1,_RNCNvNtNtNtCs3JGymTfL39z_7backend9api_pages10controller4tests_33delete_page_by_id_via_api_failing0B9_
FNDA:1,_RNCNCNvNtNtNtCs3JGymTfL39z_7backend9api_pages10controller4tests_33delete_page_by_id_via_api_failing00Bb_
FNDA:1,_RNCNvNtNtNtCs3JGymTfL39z_7backend9api_pages10controller4tests_22update_page_by_page_id0B9_
FNDA:1,_RNCNCNvNtNtNtCs3JGymTfL39z_7backend9api_pages10controller4tests_22update_page_by_page_id00Bb_
FNDA:1,_RNCNvNtNtNtCs3JGymTfL39z_7backend9api_pages10controller4tests_30update_page_by_page_id_failing0B9_
FNDA:1,_RNCNCNvNtNtNtCs3JGymTfL39z_7backend9api_pages10controller4tests_30update_page_by_page_id_failing00Bb_
FNDA:8,_RNCNvNtNtCs3JGymTfL39z_7backend9api_pages10controller5stage0B7_
FNDA:8,_RNCNCNvNtNtCs3JGymTfL39z_7backend9api_pages10controller5stage00B9_
FNDA:0,_RNCNvNvMNtNtCs3JGymTfL39z_7backend9api_pages10controllerNtB6_7options9into_info22monomorphized_function0Ba_
FNDA:0,_RNCNvNvMs_NtNtCs3JGymTfL39z_7backend9api_pages10controllerNtB8_20pages_delete_options9into_info22monomorphized_function0Bc_
FNDA:1,_RNCNvNtNtCs3JGymTfL39z_7backend9api_pages10controller8add_page0B7_
FNDA:1,_RNCNCNvNtNtCs3JGymTfL39z_7backend9api_pages10controller8add_page00B9_
FNDA:1,_RNCNvNvMs0_NtNtCs3JGymTfL39z_7backend9api_pages10controllerNtB9_8add_page9into_info22monomorphized_function0Bd_
FNDA:1,_RNCNvNtNtCs3JGymTfL39z_7backend9api_pages10controller7get_all0B7_
FNDA:1,_RNCNCNvNtNtCs3JGymTfL39z_7backend9api_pages10controller7get_all00B9_
FNDA:1,_RNCNvNvMs1_NtNtCs3JGymTfL39z_7backend9api_pages10controllerNtB9_7get_all9into_info22monomorphized_function0Bd_
FNDA:2,_RNCNvNtNtCs3JGymTfL39z_7backend9api_pages10controller14get_by_page_id0B7_
FNDA:2,_RNCNCNvNtNtCs3JGymTfL39z_7backend9api_pages10controller14get_by_page_id00B9_
FNDA:2,_RNCNvNvMs2_NtNtCs3JGymTfL39z_7backend9api_pages10controllerNtB9_14get_by_page_id9into_info22monomorphized_function0Bd_
FNDA:2,_RNCNvNtNtCs3JGymTfL39z_7backend9api_pages10controller17delete_by_page_id0B7_
FNDA:2,_RNCNCNvNtNtCs3JGymTfL39z_7backend9api_pages10controller17delete_by_page_id00B9_
FNDA:2,_RNCNvNvMs3_NtNtCs3JGymTfL39z_7backend9api_pages10controllerNtB9_17delete_by_page_id9into_info22monomorphized_function0Bd_
FNDA:2,_RNCNvNtNtCs3JGymTfL39z_7backend9api_pages10controller17update_by_page_pk0B7_
FNDA:2,_RNCNCNvNtNtCs3JGymTfL39z_7backend9api_pages10controller17update_by_page_pk00B9_
FNDA:2,_RNCNvNvMs4_NtNtCs3JGymTfL39z_7backend9api_pages10controllerNtB9_17update_by_page_pk9into_info22monomorphized_function0Bd_
FNF:60
FNH:58
DA:15,16
DA:16,0
DA:18,0
DA:19,0
DA:21,1
DA:22,1
DA:23,1
DA:24,1
DA:25,1
DA:26,1
DA:27,1
DA:28,1
DA:29,1
DA:30,1
DA:31,1
DA:33,1
DA:34,1
DA:36,1
DA:37,1
DA:38,1
DA:39,1
DA:40,1
DA:41,1
DA:42,1
DA:44,2
DA:45,2
DA:46,2
DA:47,2
DA:48,2
DA:50,2
DA:51,1
DA:52,1
DA:55,2
DA:56,2
DA:58,2
DA:59,2
DA:60,2
DA:61,2
DA:62,2
DA:64,2
DA:65,2
DA:66,2
DA:67,1
DA:68,1
DA:70,2
DA:72,2
DA:73,2
DA:74,2
DA:75,2
DA:76,2
DA:78,2
DA:79,2
DA:80,2
DA:81,1
DA:82,1
DA:84,2
DA:86,8
DA:87,8
DA:88,8
DA:89,8
DA:90,8
DA:91,8
DA:92,8
DA:93,8
DA:94,8
DA:95,8
DA:96,8
DA:97,8
DA:98,8
DA:99,8
DA:100,8
DA:101,8
DA:122,5
DA:123,5
DA:124,5
DA:125,5
DA:126,5
DA:127,5
DA:128,5
DA:130,10
DA:131,10
DA:132,10
DA:133,10
DA:134,10
DA:135,10
DA:137,10
DA:138,10
DA:139,10
DA:140,10
DA:141,10
DA:142,10
DA:145,1
DA:146,1
DA:147,1
DA:148,1
DA:149,1
DA:150,1
DA:151,1
DA:152,1
DA:153,1
DA:154,1
DA:155,1
DA:156,1
DA:157,1
DA:158,1
DA:159,1
DA:163,1
DA:164,1
DA:165,1
DA:166,1
DA:167,1
DA:168,1
DA:169,1
DA:170,1
DA:171,1
DA:172,1
DA:173,1
DA:174,1
DA:175,1
DA:176,1
DA:177,1
DA:178,1
DA:179,1
DA:180,1
DA:181,1
DA:182,1
DA:183,1
DA:184,1
DA:185,1
DA:186,1
DA:187,1
DA:189,1
DA:190,1
DA:191,1
DA:192,1
DA:193,1
DA:197,1
DA:198,1
DA:199,1
DA:200,1
DA:201,1
DA:202,1
DA:203,1
DA:204,1
DA:205,1
DA:206,1
DA:207,1
DA:208,1
DA:209,1
DA:211,1
DA:212,1
DA:213,1
DA:214,1
DA:215,1
DA:216,1
DA:220,1
DA:221,1
DA:222,1
DA:223,1
DA:224,1
DA:225,1
DA:226,1
DA:227,1
DA:228,1
DA:229,1
DA:232,1
DA:236,1
DA:237,1
DA:238,1
DA:239,1
DA:240,1
DA:241,1
DA:242,1
DA:243,1
DA:244,1
DA:245,1
DA:246,1
DA:247,1
DA:248,1
DA:249,1
DA:250,1
DA:252,1
DA:253,1
DA:254,1
DA:255,1
DA:257,1
DA:258,1
DA:259,1
DA:260,1
DA:261,1
DA:262,1
DA:264,1
DA:265,1
DA:266,1
DA:268,1
DA:269,1
DA:270,1
DA:271,1
DA:272,1
DA:273,1
DA:277,1
DA:278,1
DA:279,1
DA:280,1
DA:281,1
DA:282,1
DA:283,1
DA:284,1
DA:285,1
DA:286,1
DA:287,0
DA:288,0
DA:290,1
DA:291,1
DA:292,1
DA:293,1
DA:294,1
DA:295,1
DA:299,1
DA:300,1
DA:301,1
DA:302,1
DA:303,1
DA:304,1
DA:305,1
DA:306,1
DA:307,1
DA:308,1
DA:309,1
DA:310,1
DA:311,1
DA:313,1
DA:314,1
DA:315,1
DA:316,1
DA:317,1
DA:318,1
DA:322,1
DA:323,1
DA:324,1
DA:325,1
DA:326,1
DA:327,1
DA:328,1
DA:329,1
DA:330,1
DA:331,1
DA:332,1
DA:333,1
DA:334,1
DA:335,1
DA:339,1
DA:340,1
DA:341,1
DA:342,1
DA:343,1
DA:344,1
DA:345,1
DA:346,1
DA:347,1
DA:348,1
DA:349,1
DA:350,1
DA:351,1
DA:352,1
DA:353,1
DA:354,1
DA:355,1
DA:356,1
DA:357,1
DA:358,1
DA:359,1
DA:360,1
DA:361,1
DA:362,1
DA:363,1
DA:364,1
DA:365,1
DA:366,1
DA:370,1
DA:371,1
DA:372,1
DA:373,1
DA:374,1
DA:375,1
DA:376,1
DA:377,1
DA:378,1
DA:379,1
DA:380,1
DA:381,1
DA:382,1
DA:383,1
DA:384,1
DA:385,1
DA:386,1
DA:387,1
DA:388,1
DA:389,1
DA:390,1
DA:391,1
BRF:0
BRH:0
LF:348
LH:344
end_of_record
SF:/home/gil/Documents/Projects/proc-server/backend/src/api_pages/db_entity.rs
FN:93,_RNvNtNtNtCs3JGymTfL39z_7backend9api_pages9db_entity5testss_15db_pages_are_eq
FN:118,_RNvNtNtNtCs3JGymTfL39z_7backend9api_pages9db_entity5testss_19db_pages_are_not_eq
FN:23,_RNvXNtNtCs3JGymTfL39z_7backend9api_pages9db_entityNtB2_6DbPageNtNtCsgJAJTVk4Czu_4core3cmp9PartialEq2eq
FN:34,_RNvMs0_NtNtCs3JGymTfL39z_7backend9api_pages9db_entityNtB5_6DbPage6create
FN:44,_RNvMs0_NtNtCs3JGymTfL39z_7backend9api_pages9db_entityNtB5_6DbPage8read_all
FN:48,_RNvMs0_NtNtCs3JGymTfL39z_7backend9api_pages9db_entityNtB5_6DbPage15read_by_page_id
FN:66,_RNvMs0_NtNtCs3JGymTfL39z_7backend9api_pages9db_entityNtB5_6DbPage17delete_by_page_id
FN:73,_RNvMs0_NtNtCs3JGymTfL39z_7backend9api_pages9db_entityNtB5_6DbPage17update_by_page_pk
FN:10,_RNvXs0_NvXNvNtNtCs3JGymTfL39z_7backend9api_pages9db_entity1__NtBa_6DbPageNtNtCs1AOnAreo0ot_5serde2de11Deserialize11deserializeNtB5_9___VisitorNtB1b_7Visitor9expecting
FN:12,_RINvNvNtNtCs3JGymTfL39z_7backend9api_pages9db_entitys1_1__26__check_field_compatibilitypEB8_
FN:12,_RNvXNvNtNtCs3JGymTfL39z_7backend9api_pages9db_entitys2_1__NtB4_6DbPageNtNtNtNtCskl7I60Z50mh_6diesel13query_builder16update_statement9changeset11AsChangeset12as_changeset
FN:12,_RNvXs_NvNtNtCs3JGymTfL39z_7backend9api_pages9db_entitys2_1__RNtB6_6DbPageNtNtNtNtCskl7I60Z50mh_6diesel13query_builder16update_statement9changeset11AsChangeset12as_changeset
FN:10,_RNvXNvXNvNtNtCs3JGymTfL39z_7backend9api_pages9db_entity1__NtB7_6DbPageNtNtCs1AOnAreo0ot_5serde2de11Deserialize11deserializeNtB2_14___FieldVisitorNtB18_7Visitor9expecting
FN:10,_RINvXNvXNvNtNtCs3JGymTfL39z_7backend9api_pages9db_entity1__NtB8_6DbPageNtNtCs1AOnAreo0ot_5serde2de11Deserialize11deserializeNtB3_14___FieldVisitorNtB19_7Visitor9visit_u64pEBc_
FN:10,_RINvXNvXNvNtNtCs3JGymTfL39z_7backend9api_pages9db_entity1__NtB8_6DbPageNtNtCs1AOnAreo0ot_5serde2de11Deserialize11deserializeNtB3_14___FieldVisitorNtB19_7Visitor11visit_bytespEBc_
FN:10,_RINvXNvXNvNtNtCs3JGymTfL39z_7backend9api_pages9db_entity1__NtB8_6DbPageNtNtCs1AOnAreo0ot_5serde2de11Deserialize11deserializeNtB3_14___FieldVisitorNtB19_7Visitor9visit_strNtNtCs4FX0pYNxzeg_10serde_json5error5ErrorEBc_
FN:10,_RINvXs_NvXNvNtNtCs3JGymTfL39z_7backend9api_pages9db_entity1__NtBa_6DbPageNtNtCs1AOnAreo0ot_5serde2de11Deserialize11deserializeNtB5_7___FieldB19_11deserializeINtNtCs4FX0pYNxzeg_10serde_json2de6MapKeyINtNtB2A_4read6IoReadNtNtNtNtCsd1kUtcsOjZj_6rocket5local8blocking8response13LocalResponseEEEBe_
FN:10,_RINvXs0_NvXNvNtNtCs3JGymTfL39z_7backend9api_pages9db_entity1__NtBb_6DbPageNtNtCs1AOnAreo0ot_5serde2de11Deserialize11deserializeNtB6_9___VisitorNtB1c_7Visitor9visit_seqINtNtCs4FX0pYNxzeg_10serde_json2de9SeqAccessINtNtB2K_4read6IoReadNtNtNtNtCsd1kUtcsOjZj_6rocket5local8blocking8response13LocalResponseEEEBf_
FN:10,_RINvXs0_NvXNvNtNtCs3JGymTfL39z_7backend9api_pages9db_entity1__NtBb_6DbPageNtNtCs1AOnAreo0ot_5serde2de11Deserialize11deserializeNtB6_9___VisitorNtB1c_7Visitor9visit_mapINtNtCs4FX0pYNxzeg_10serde_json2de9MapAccessINtNtB2K_4read6IoReadNtNtNtNtCsd1kUtcsOjZj_6rocket5local8blocking8response13LocalResponseEEEBf_
FN:12,_RNvXNvNtNtCs3JGymTfL39z_7backend9api_pages9db_entitys0_1__NtB4_6DbPageINtNtCskl7I60Z50mh_6diesel11deserialize9QueryableTNtNtB1b_9sql_types7IntegerNtB1W_4TextB2k_NtB1W_9TimestampENtNtNtB1b_2pg7backend2PgE5buildB8_
FN:12,_RNvXNvNtNtCs3JGymTfL39z_7backend9api_pages9db_entitys1_1__NtB4_6DbPageINtNtCskl7I60Z50mh_6diesel10expression10SelectableNtNtNtB1b_2pg7backend2PgE19construct_selectionB8_
FNDA:1,_RNvNtNtNtCs3JGymTfL39z_7backend9api_pages9db_entity5testss_15db_pages_are_eq
FNDA:1,_RNvNtNtNtCs3JGymTfL39z_7backend9api_pages9db_entity5testss_19db_pages_are_not_eq
FNDA:2,_RNvXNtNtCs3JGymTfL39z_7backend9api_pages9db_entityNtB2_6DbPageNtNtCsgJAJTVk4Czu_4core3cmp9PartialEq2eq
FNDA:2,_RNvMs0_NtNtCs3JGymTfL39z_7backend9api_pages9db_entityNtB5_6DbPage6create
FNDA:4,_RNvMs0_NtNtCs3JGymTfL39z_7backend9api_pages9db_entityNtB5_6DbPage8read_all
FNDA:2,_RNvMs0_NtNtCs3JGymTfL39z_7backend9api_pages9db_entityNtB5_6DbPage15read_by_page_id
FNDA:2,_RNvMs0_NtNtCs3JGymTfL39z_7backend9api_pages9db_entityNtB5_6DbPage17delete_by_page_id
FNDA:2,_RNvMs0_NtNtCs3JGymTfL39z_7backend9api_pages9db_entityNtB5_6DbPage17update_by_page_pk
FNDA:0,_RNvXs0_NvXNvNtNtCs3JGymTfL39z_7backend9api_pages9db_entity1__NtBa_6DbPageNtNtCs1AOnAreo0ot_5serde2de11Deserialize11deserializeNtB5_9___VisitorNtB1b_7Visitor9expecting
FNDA:0,_RINvNvNtNtCs3JGymTfL39z_7backend9api_pages9db_entitys1_1__26__check_field_compatibilitypEB8_
FNDA:0,_RNvXNvNtNtCs3JGymTfL39z_7backend9api_pages9db_entitys2_1__NtB4_6DbPageNtNtNtNtCskl7I60Z50mh_6diesel13query_builder16update_statement9changeset11AsChangeset12as_changeset
FNDA:0,_RNvXs_NvNtNtCs3JGymTfL39z_7backend9api_pages9db_entitys2_1__RNtB6_6DbPageNtNtNtNtCskl7I60Z50mh_6diesel13query_builder16update_statement9changeset11AsChangeset12as_changeset
FNDA:0,_RNvXNvXNvNtNtCs3JGymTfL39z_7backend9api_pages9db_entity1__NtB7_6DbPageNtNtCs1AOnAreo0ot_5serde2de11Deserialize11deserializeNtB2_14___FieldVisitorNtB18_7Visitor9expecting
FNDA:0,_RINvXNvXNvNtNtCs3JGymTfL39z_7backend9api_pages9db_entity1__NtB8_6DbPageNtNtCs1AOnAreo0ot_5serde2de11Deserialize11deserializeNtB3_14___FieldVisitorNtB19_7Visitor9visit_u64pEBc_
FNDA:0,_RINvXNvXNvNtNtCs3JGymTfL39z_7backend9api_pages9db_entity1__NtB8_6DbPageNtNtCs1AOnAreo0ot_5serde2de11Deserialize11deserializeNtB3_14___FieldVisitorNtB19_7Visitor11visit_bytespEBc_
FNDA:4,_RINvXNvXNvNtNtCs3JGymTfL39z_7backend9api_pages9db_entity1__NtB8_6DbPageNtNtCs1AOnAreo0ot_5serde2de11Deserialize11deserializeNtB3_14___FieldVisitorNtB19_7Visitor9visit_strNtNtCs4FX0pYNxzeg_10serde_json5error5ErrorEBc_
FNDA:4,_RINvXs_NvXNvNtNtCs3JGymTfL39z_7backend9api_pages9db_entity1__NtBa_6DbPageNtNtCs1AOnAreo0ot_5serde2de11Deserialize11deserializeNtB5_7___FieldB19_11deserializeINtNtCs4FX0pYNxzeg_10serde_json2de6MapKeyINtNtB2A_4read6IoReadNtNtNtNtCsd1kUtcsOjZj_6rocket5local8blocking8response13LocalResponseEEEBe_
FNDA:0,_RINvXs0_NvXNvNtNtCs3JGymTfL39z_7backend9api_pages9db_entity1__NtBb_6DbPageNtNtCs1AOnAreo0ot_5serde2de11Deserialize11deserializeNtB6_9___VisitorNtB1c_7Visitor9visit_seqINtNtCs4FX0pYNxzeg_10serde_json2de9SeqAccessINtNtB2K_4read6IoReadNtNtNtNtCsd1kUtcsOjZj_6rocket5local8blocking8response13LocalResponseEEEBf_
FNDA:1,_RINvXs0_NvXNvNtNtCs3JGymTfL39z_7backend9api_pages9db_entity1__NtBb_6DbPageNtNtCs1AOnAreo0ot_5serde2de11Deserialize11deserializeNtB6_9___VisitorNtB1c_7Visitor9visit_mapINtNtCs4FX0pYNxzeg_10serde_json2de9MapAccessINtNtB2K_4read6IoReadNtNtNtNtCsd1kUtcsOjZj_6rocket5local8blocking8response13LocalResponseEEEBf_
FNDA:7,_RNvXNvNtNtCs3JGymTfL39z_7backend9api_pages9db_entitys0_1__NtB4_6DbPageINtNtCskl7I60Z50mh_6diesel11deserialize9QueryableTNtNtB1b_9sql_types7IntegerNtB1W_4TextB2k_NtB1W_9TimestampENtNtNtB1b_2pg7backend2PgE5buildB8_
FNDA:8,_RNvXNvNtNtCs3JGymTfL39z_7backend9api_pages9db_entitys1_1__NtB4_6DbPageINtNtCskl7I60Z50mh_6diesel10expression10SelectableNtNtNtB1b_2pg7backend2PgE19construct_selectionB8_
FNF:12
FNH:11
DA:10,5
DA:12,8
DA:23,2
DA:24,2
DA:25,1
DA:26,1
DA:27,1
DA:28,2
DA:34,2
DA:35,2
DA:36,2
DA:37,2
DA:38,2
DA:39,2
DA:40,2
DA:41,2
DA:42,2
DA:44,4
DA:45,4
DA:46,4
DA:48,2
DA:49,2
DA:50,2
DA:51,2
DA:52,2
DA:53,2
DA:54,2
DA:55,2
DA:56,2
DA:57,2
DA:58,2
DA:59,2
DA:60,2
DA:61,2
DA:62,2
DA:63,2
DA:64,2
DA:66,2
DA:67,2
DA:68,2
DA:69,2
DA:70,2
DA:71,2
DA:73,2
DA:74,2
DA:75,2
DA:76,2
DA:77,2
DA:78,2
DA:79,2
DA:80,2
DA:81,2
DA:82,2
DA:83,2
DA:93,1
DA:94,1
DA:95,1
DA:96,1
DA:97,1
DA:98,1
DA:99,1
DA:100,1
DA:101,1
DA:102,1
DA:103,1
DA:104,1
DA:105,1
DA:106,1
DA:107,1
DA:108,1
DA:109,1
DA:110,1
DA:111,1
DA:112,1
DA:113,1
DA:114,1
DA:115,1
DA:118,1
DA:119,1
DA:120,1
DA:121,1
DA:122,1
DA:123,1
DA:124,1
DA:125,1
DA:126,1
DA:127,1
DA:128,1
DA:129,1
DA:130,1
DA:131,1
DA:132,1
DA:133,1
DA:134,1
DA:135,1
DA:136,1
DA:137,1
DA:138,1
DA:139,1
BRF:0
BRH:0
LF:101
LH:100
end_of_record
SF:/home/gil/Documents/Projects/proc-server/backend/src/api_pages/dto.rs
FN:5,_RNvXNvNtNtCs3JGymTfL39z_7backend9api_pages3dto1__NtB4_9NewDbPageINtNtCskl7I60Z50mh_6diesel10insertable10InsertableNtNtNtB8_6schema5pages5tableE6values
FN:5,_RNvXs_NvNtNtCs3JGymTfL39z_7backend9api_pages3dto1__RNtB6_9NewDbPageINtNtCskl7I60Z50mh_6diesel10insertable10InsertableNtNtNtBa_6schema5pages5tableE6values
FN:5,_RNvXs0_NvXNvNtNtCs3JGymTfL39z_7backend9api_pages3dtos_1__NtBa_9NewDbPageNtNtCs1AOnAreo0ot_5serde2de11Deserialize11deserializeNtB5_9___VisitorNtB1a_7Visitor9expecting
FN:13,_RNvXs_NvNtNtCs3JGymTfL39z_7backend9api_pages3dtos1_1__RNtB6_12ChangeDbPageNtNtNtNtCskl7I60Z50mh_6diesel13query_builder16update_statement9changeset11AsChangeset12as_changeset
FN:13,_RNvXs0_NvXNvNtNtCs3JGymTfL39z_7backend9api_pages3dtos2_1__NtBa_12ChangeDbPageNtNtCs1AOnAreo0ot_5serde2de11Deserialize11deserializeNtB5_9___VisitorNtB1f_7Visitor9expecting
FN:5,_RNvXNvXNvNtNtCs3JGymTfL39z_7backend9api_pages3dtos_1__NtB7_9NewDbPageNtNtCs1AOnAreo0ot_5serde2de11Deserialize11deserializeNtB2_14___FieldVisitorNtB17_7Visitor9expecting
FN:5,_RINvXNvXNvNtNtCs3JGymTfL39z_7backend9api_pages3dtos_1__NtB8_9NewDbPageNtNtCs1AOnAreo0ot_5serde2de11Deserialize11deserializeNtB3_14___FieldVisitorNtB18_7Visitor9visit_u64pEBc_
FN:5,_RINvXNvXNvNtNtCs3JGymTfL39z_7backend9api_pages3dtos_1__NtB8_9NewDbPageNtNtCs1AOnAreo0ot_5serde2de11Deserialize11deserializeNtB3_14___FieldVisitorNtB18_7Visitor11visit_bytespEBc_
FN:13,_RNvXNvNtNtCs3JGymTfL39z_7backend9api_pages3dtos1_1__NtB4_12ChangeDbPageNtNtNtNtCskl7I60Z50mh_6diesel13query_builder16update_statement9changeset11AsChangeset12as_changeset
FN:13,_RNCNvXNvNtNtCs3JGymTfL39z_7backend9api_pages3dtos1_1__NtB6_12ChangeDbPageNtNtNtNtCskl7I60Z50mh_6diesel13query_builder16update_statement9changeset11AsChangeset12as_changeset0Ba_
FN:13,_RNCNvXNvNtNtCs3JGymTfL39z_7backend9api_pages3dtos1_1__NtB6_12ChangeDbPageNtNtNtNtCskl7I60Z50mh_6diesel13query_builder16update_statement9changeset11AsChangeset12as_changesets_0Ba_
FN:13,_RNvXNvXNvNtNtCs3JGymTfL39z_7backend9api_pages3dtos2_1__NtB7_12ChangeDbPageNtNtCs1AOnAreo0ot_5serde2de11Deserialize11deserializeNtB2_14___FieldVisitorNtB1c_7Visitor9expecting
FN:13,_RINvXNvXNvNtNtCs3JGymTfL39z_7backend9api_pages3dtos2_1__NtB8_12ChangeDbPageNtNtCs1AOnAreo0ot_5serde2de11Deserialize11deserializeNtB3_14___FieldVisitorNtB1d_7Visitor9visit_u64pEBc_
FN:13,_RINvXNvXNvNtNtCs3JGymTfL39z_7backend9api_pages3dtos2_1__NtB8_12ChangeDbPageNtNtCs1AOnAreo0ot_5serde2de11Deserialize11deserializeNtB3_14___FieldVisitorNtB1d_7Visitor11visit_bytespEBc_
FN:5,_RINvXNvXNvNtNtCs3JGymTfL39z_7backend9api_pages3dtos_1__NtB8_9NewDbPageNtNtCs1AOnAreo0ot_5serde2de11Deserialize11deserializeNtB3_14___FieldVisitorNtB18_7Visitor9visit_strNtNtCs4FX0pYNxzeg_10serde_json5error5ErrorEBc_
FN:5,_RINvXs_NvXNvNtNtCs3JGymTfL39z_7backend9api_pages3dtos_1__NtBa_9NewDbPageNtNtCs1AOnAreo0ot_5serde2de11Deserialize11deserializeNtB5_7___FieldB18_11deserializeINtNtCs4FX0pYNxzeg_10serde_json2de6MapKeyNtNtB2z_4read7StrReadEEBe_
FN:5,_RINvXs0_NvXNvNtNtCs3JGymTfL39z_7backend9api_pages3dtos_1__NtBb_9NewDbPageNtNtCs1AOnAreo0ot_5serde2de11Deserialize11deserializeNtB6_9___VisitorNtB1b_7Visitor9visit_seqINtNtCs4FX0pYNxzeg_10serde_json2de9SeqAccessNtNtB2J_4read7StrReadEEBf_
FN:5,_RINvXs0_NvXNvNtNtCs3JGymTfL39z_7backend9api_pages3dtos_1__NtBb_9NewDbPageNtNtCs1AOnAreo0ot_5serde2de11Deserialize11deserializeNtB6_9___VisitorNtB1b_7Visitor9visit_mapINtNtCs4FX0pYNxzeg_10serde_json2de9MapAccessNtNtB2J_4read7StrReadEEBf_
FN:13,_RNCNvXs_NvNtNtCs3JGymTfL39z_7backend9api_pages3dtos1_1__RNtB8_12ChangeDbPageNtNtNtNtCskl7I60Z50mh_6diesel13query_builder16update_statement9changeset11AsChangeset12as_changeset0Bc_
FN:13,_RNCNvXs_NvNtNtCs3JGymTfL39z_7backend9api_pages3dtos1_1__RNtB8_12ChangeDbPageNtNtNtNtCskl7I60Z50mh_6diesel13query_builder16update_statement9changeset11AsChangeset12as_changesets_0Bc_
FN:13,_RINvXNvXNvNtNtCs3JGymTfL39z_7backend9api_pages3dtos2_1__NtB8_12ChangeDbPageNtNtCs1AOnAreo0ot_5serde2de11Deserialize11deserializeNtB3_14___FieldVisitorNtB1d_7Visitor9visit_strNtNtCs4FX0pYNxzeg_10serde_json5error5ErrorEBc_
FN:13,_RINvXs_NvXNvNtNtCs3JGymTfL39z_7backend9api_pages3dtos2_1__NtBa_12ChangeDbPageNtNtCs1AOnAreo0ot_5serde2de11Deserialize11deserializeNtB5_7___FieldB1d_11deserializeINtNtCs4FX0pYNxzeg_10serde_json2de6MapKeyNtNtB2E_4read7StrReadEEBe_
FN:13,_RINvXs0_NvXNvNtNtCs3JGymTfL39z_7backend9api_pages3dtos2_1__NtBb_12ChangeDbPageNtNtCs1AOnAreo0ot_5serde2de11Deserialize11deserializeNtB6_9___VisitorNtB1g_7Visitor9visit_seqINtNtCs4FX0pYNxzeg_10serde_json2de9SeqAccessNtNtB2O_4read7StrReadEEBf_
FN:13,_RINvXs0_NvXNvNtNtCs3JGymTfL39z_7backend9api_pages3dtos2_1__NtBb_12ChangeDbPageNtNtCs1AOnAreo0ot_5serde2de11Deserialize11deserializeNtB6_9___VisitorNtB1g_7Visitor9visit_mapINtNtCs4FX0pYNxzeg_10serde_json2de9MapAccessNtNtB2O_4read7StrReadEEBf_
FNDA:4,_RNvXNvNtNtCs3JGymTfL39z_7backend9api_pages3dto1__NtB4_9NewDbPageINtNtCskl7I60Z50mh_6diesel10insertable10InsertableNtNtNtB8_6schema5pages5tableE6values
FNDA:2,_RNvXs_NvNtNtCs3JGymTfL39z_7backend9api_pages3dto1__RNtB6_9NewDbPageINtNtCskl7I60Z50mh_6diesel10insertable10InsertableNtNtNtBa_6schema5pages5tableE6values
FNDA:0,_RNvXs0_NvXNvNtNtCs3JGymTfL39z_7backend9api_pages3dtos_1__NtBa_9NewDbPageNtNtCs1AOnAreo0ot_5serde2de11Deserialize11deserializeNtB5_9___VisitorNtB1a_7Visitor9expecting
FNDA:2,_RNvXs_NvNtNtCs3JGymTfL39z_7backend9api_pages3dtos1_1__RNtB6_12ChangeDbPageNtNtNtNtCskl7I60Z50mh_6diesel13query_builder16update_statement9changeset11AsChangeset12as_changeset
FNDA:0,_RNvXs0_NvXNvNtNtCs3JGymTfL39z_7backend9api_pages3dtos2_1__NtBa_12ChangeDbPageNtNtCs1AOnAreo0ot_5serde2de11Deserialize11deserializeNtB5_9___VisitorNtB1f_7Visitor9expecting
FNDA:0,_RNvXNvXNvNtNtCs3JGymTfL39z_7backend9api_pages3dtos_1__NtB7_9NewDbPageNtNtCs1AOnAreo0ot_5serde2de11Deserialize11deserializeNtB2_14___FieldVisitorNtB17_7Visitor9expecting
FNDA:0,_RINvXNvXNvNtNtCs3JGymTfL39z_7backend9api_pages3dtos_1__NtB8_9NewDbPageNtNtCs1AOnAreo0ot_5serde2de11Deserialize11deserializeNtB3_14___FieldVisitorNtB18_7Visitor9visit_u64pEBc_
FNDA:0,_RINvXNvXNvNtNtCs3JGymTfL39z_7backend9api_pages3dtos_1__NtB8_9NewDbPageNtNtCs1AOnAreo0ot_5serde2de11Deserialize11deserializeNtB3_14___FieldVisitorNtB18_7Visitor11visit_bytespEBc_
FNDA:0,_RNvXNvNtNtCs3JGymTfL39z_7backend9api_pages3dtos1_1__NtB4_12ChangeDbPageNtNtNtNtCskl7I60Z50mh_6diesel13query_builder16update_statement9changeset11AsChangeset12as_changeset
FNDA:0,_RNCNvXNvNtNtCs3JGymTfL39z_7backend9api_pages3dtos1_1__NtB6_12ChangeDbPageNtNtNtNtCskl7I60Z50mh_6diesel13query_builder16update_statement9changeset11AsChangeset12as_changeset0Ba_
FNDA:0,_RNCNvXNvNtNtCs3JGymTfL39z_7backend9api_pages3dtos1_1__NtB6_12ChangeDbPageNtNtNtNtCskl7I60Z50mh_6diesel13query_builder16update_statement9changeset11AsChangeset12as_changesets_0Ba_
FNDA:0,_RNvXNvXNvNtNtCs3JGymTfL39z_7backend9api_pages3dtos2_1__NtB7_12ChangeDbPageNtNtCs1AOnAreo0ot_5serde2de11Deserialize11deserializeNtB2_14___FieldVisitorNtB1c_7Visitor9expecting
FNDA:0,_RINvXNvXNvNtNtCs3JGymTfL39z_7backend9api_pages3dtos2_1__NtB8_12ChangeDbPageNtNtCs1AOnAreo0ot_5serde2de11Deserialize11deserializeNtB3_14___FieldVisitorNtB1d_7Visitor9visit_u64pEBc_
FNDA:0,_RINvXNvXNvNtNtCs3JGymTfL39z_7backend9api_pages3dtos2_1__NtB8_12ChangeDbPageNtNtCs1AOnAreo0ot_5serde2de11Deserialize11deserializeNtB3_14___FieldVisitorNtB1d_7Visitor11visit_bytespEBc_
FNDA:3,_RINvXNvXNvNtNtCs3JGymTfL39z_7backend9api_pages3dtos_1__NtB8_9NewDbPageNtNtCs1AOnAreo0ot_5serde2de11Deserialize11deserializeNtB3_14___FieldVisitorNtB18_7Visitor9visit_strNtNtCs4FX0pYNxzeg_10serde_json5error5ErrorEBc_
FNDA:3,_RINvXs_NvXNvNtNtCs3JGymTfL39z_7backend9api_pages3dtos_1__NtBa_9NewDbPageNtNtCs1AOnAreo0ot_5serde2de11Deserialize11deserializeNtB5_7___FieldB18_11deserializeINtNtCs4FX0pYNxzeg_10serde_json2de6MapKeyNtNtB2z_4read7StrReadEEBe_
FNDA:0,_RINvXs0_NvXNvNtNtCs3JGymTfL39z_7backend9api_pages3dtos_1__NtBb_9NewDbPageNtNtCs1AOnAreo0ot_5serde2de11Deserialize11deserializeNtB6_9___VisitorNtB1b_7Visitor9visit_seqINtNtCs4FX0pYNxzeg_10serde_json2de9SeqAccessNtNtB2J_4read7StrReadEEBf_
FNDA:1,_RINvXs0_NvXNvNtNtCs3JGymTfL39z_7backend9api_pages3dtos_1__NtBb_9NewDbPageNtNtCs1AOnAreo0ot_5serde2de11Deserialize11deserializeNtB6_9___VisitorNtB1b_7Visitor9visit_mapINtNtCs4FX0pYNxzeg_10serde_json2de9MapAccessNtNtB2J_4read7StrReadEEBf_
FNDA:2,_RNCNvXs_NvNtNtCs3JGymTfL39z_7backend9api_pages3dtos1_1__RNtB8_12ChangeDbPageNtNtNtNtCskl7I60Z50mh_6diesel13query_builder16update_statement9changeset11AsChangeset12as_changeset0Bc_
FNDA:2,_RNCNvXs_NvNtNtCs3JGymTfL39z_7backend9api_pages3dtos1_1__RNtB8_12ChangeDbPageNtNtNtNtCskl7I60Z50mh_6diesel13query_builder16update_statement9changeset11AsChangeset12as_changesets_0Bc_
FNDA:6,_RINvXNvXNvNtNtCs3JGymTfL39z_7backend9api_pages3dtos2_1__NtB8_12ChangeDbPageNtNtCs1AOnAreo0ot_5serde2de11Deserialize11deserializeNtB3_14___FieldVisitorNtB1d_7Visitor9visit_strNtNtCs4FX0pYNxzeg_10serde_json5error5ErrorEBc_
FNDA:6,_RINvXs_NvXNvNtNtCs3JGymTfL39z_7backend9api_pages3dtos2_1__NtBa_12ChangeDbPageNtNtCs1AOnAreo0ot_5serde2de11Deserialize11deserializeNtB5_7___FieldB1d_11deserializeINtNtCs4FX0pYNxzeg_10serde_json2de6MapKeyNtNtB2E_4read7StrReadEEBe_
FNDA:0,_RINvXs0_NvXNvNtNtCs3JGymTfL39z_7backend9api_pages3dtos2_1__NtBb_12ChangeDbPageNtNtCs1AOnAreo0ot_5serde2de11Deserialize11deserializeNtB6_9___VisitorNtB1g_7Visitor9visit_seqINtNtCs4FX0pYNxzeg_10serde_json2de9SeqAccessNtNtB2O_4read7StrReadEEBf_
FNDA:2,_RINvXs0_NvXNvNtNtCs3JGymTfL39z_7backend9api_pages3dtos2_1__NtBb_12ChangeDbPageNtNtCs1AOnAreo0ot_5serde2de11Deserialize11deserializeNtB6_9___VisitorNtB1g_7Visitor9visit_mapINtNtCs4FX0pYNxzeg_10serde_json2de9MapAccessNtNtB2O_4read7StrReadEEBf_
FNF:4
FNH:4
DA:5,6
DA:13,8
BRF:0
BRH:0
LF:4
LH:4
end_of_record
SF:/home/gil/Documents/Projects/proc-server/backend/src/api_pages/entity.rs
FN:13,_RNvXNtNtCs3JGymTfL39z_7backend9api_pages6entityNtB2_4PageNtNtCsgJAJTVk4Czu_4core3cmp9PartialEq2eq
FN:4,_RNvXs0_NvXNvNtNtCs3JGymTfL39z_7backend9api_pages6entitys_1__NtBa_4PageNtNtCs1AOnAreo0ot_5serde2de11Deserialize11deserializeNtB5_9___VisitorNtB18_7Visitor9expecting
FN:23,_RNvNtNtCs3JGymTfL39z_7backend9api_pages6entitys_12pages_are_eq
FN:43,_RNvNtNtCs3JGymTfL39z_7backend9api_pages6entitys_16pages_are_not_eq
FN:4,_RNvXNvXNvNtNtCs3JGymTfL39z_7backend9api_pages6entitys_1__NtB7_4PageNtNtCs1AOnAreo0ot_5serde2de11Deserialize11deserializeNtB2_14___FieldVisitorNtB15_7Visitor9expecting
FN:4,_RINvXNvXNvNtNtCs3JGymTfL39z_7backend9api_pages6entitys_1__NtB8_4PageNtNtCs1AOnAreo0ot_5serde2de11Deserialize11deserializeNtB3_14___FieldVisitorNtB16_7Visitor9visit_u64pEBc_
FN:4,_RINvXNvXNvNtNtCs3JGymTfL39z_7backend9api_pages6entitys_1__NtB8_4PageNtNtCs1AOnAreo0ot_5serde2de11Deserialize11deserializeNtB3_14___FieldVisitorNtB16_7Visitor11visit_bytespEBc_
FN:4,_RINvXNvXNvNtNtCs3JGymTfL39z_7backend9api_pages6entitys_1__NtB8_4PageNtNtCs1AOnAreo0ot_5serde2de11Deserialize11deserializeNtB3_14___FieldVisitorNtB16_7Visitor9visit_strNtNtCs4FX0pYNxzeg_10serde_json5error5ErrorEBc_
FN:4,_RINvXs_NvXNvNtNtCs3JGymTfL39z_7backend9api_pages6entitys_1__NtBa_4PageNtNtCs1AOnAreo0ot_5serde2de11Deserialize11deserializeNtB5_7___FieldB16_11deserializeINtNtCs4FX0pYNxzeg_10serde_json2de6MapKeyINtNtB2x_4read6IoReadNtNtNtNtCsd1kUtcsOjZj_6rocket5local8blocking8response13LocalResponseEEEBe_
FN:4,_RINvXs0_NvXNvNtNtCs3JGymTfL39z_7backend9api_pages6entitys_1__NtBb_4PageNtNtCs1AOnAreo0ot_5serde2de11Deserialize11deserializeNtB6_9___VisitorNtB19_7Visitor9visit_seqINtNtCs4FX0pYNxzeg_10serde_json2de9SeqAccessINtNtB2H_4read6IoReadNtNtNtNtCsd1kUtcsOjZj_6rocket5local8blocking8response13LocalResponseEEEBf_
FN:4,_RINvXs0_NvXNvNtNtCs3JGymTfL39z_7backend9api_pages6entitys_1__NtBb_4PageNtNtCs1AOnAreo0ot_5serde2de11Deserialize11deserializeNtB6_9___VisitorNtB19_7Visitor9visit_mapINtNtCs4FX0pYNxzeg_10serde_json2de9MapAccessINtNtB2H_4read6IoReadNtNtNtNtCsd1kUtcsOjZj_6rocket5local8blocking8response13LocalResponseEEEBf_
FNDA:2,_RNvXNtNtCs3JGymTfL39z_7backend9api_pages6entityNtB2_4PageNtNtCsgJAJTVk4Czu_4core3cmp9PartialEq2eq
FNDA:0,_RNvXs0_NvXNvNtNtCs3JGymTfL39z_7backend9api_pages6entitys_1__NtBa_4PageNtNtCs1AOnAreo0ot_5serde2de11Deserialize11deserializeNtB5_9___VisitorNtB18_7Visitor9expecting
FNDA:1,_RNvNtNtCs3JGymTfL39z_7backend9api_pages6entitys_12pages_are_eq
FNDA:1,_RNvNtNtCs3JGymTfL39z_7backend9api_pages6entitys_16pages_are_not_eq
FNDA:0,_RNvXNvXNvNtNtCs3JGymTfL39z_7backend9api_pages6entitys_1__NtB7_4PageNtNtCs1AOnAreo0ot_5serde2de11Deserialize11deserializeNtB2_14___FieldVisitorNtB15_7Visitor9expecting
FNDA:0,_RINvXNvXNvNtNtCs3JGymTfL39z_7backend9api_pages6entitys_1__NtB8_4PageNtNtCs1AOnAreo0ot_5serde2de11Deserialize11deserializeNtB3_14___FieldVisitorNtB16_7Visitor9visit_u64pEBc_
FNDA:0,_RINvXNvXNvNtNtCs3JGymTfL39z_7backend9api_pages6entitys_1__NtB8_4PageNtNtCs1AOnAreo0ot_5serde2de11Deserialize11deserializeNtB3_14___FieldVisitorNtB16_7Visitor11visit_bytespEBc_
FNDA:4,_RINvXNvXNvNtNtCs3JGymTfL39z_7backend9api_pages6entitys_1__NtB8_4PageNtNtCs1AOnAreo0ot_5serde2de11Deserialize11deserializeNtB3_14___FieldVisitorNtB16_7Visitor9visit_strNtNtCs4FX0pYNxzeg_10serde_json5error5ErrorEBc_
FNDA:4,_RINvXs_NvXNvNtNtCs3JGymTfL39z_7backend9api_pages6entitys_1__NtBa_4PageNtNtCs1AOnAreo0ot_5serde2de11Deserialize11deserializeNtB5_7___FieldB16_11deserializeINtNtCs4FX0pYNxzeg_10serde_json2de6MapKeyINtNtB2x_4read6IoReadNtNtNtNtCsd1kUtcsOjZj_6rocket5local8blocking8response13LocalResponseEEEBe_
FNDA:0,_RINvXs0_NvXNvNtNtCs3JGymTfL39z_7backend9api_pages6entitys_1__NtBb_4PageNtNtCs1AOnAreo0ot_5serde2de11Deserialize11deserializeNtB6_9___VisitorNtB19_7Visitor9visit_seqINtNtCs4FX0pYNxzeg_10serde_json2de9SeqAccessINtNtB2H_4read6IoReadNtNtNtNtCsd1kUtcsOjZj_6rocket5local8blocking8response13LocalResponseEEEBf_
FNDA:1,_RINvXs0_NvXNvNtNtCs3JGymTfL39z_7backend9api_pages6entitys_1__NtBb_4PageNtNtCs1AOnAreo0ot_5serde2de11Deserialize11deserializeNtB6_9___VisitorNtB19_7Visitor9visit_mapINtNtCs4FX0pYNxzeg_10serde_json2de9MapAccessINtNtB2H_4read6IoReadNtNtNtNtCsd1kUtcsOjZj_6rocket5local8blocking8response13LocalResponseEEEBf_
FNF:4
FNH:4
DA:4,5
DA:13,2
DA:14,2
DA:15,2
DA:16,1
DA:17,1
DA:18,2
DA:23,1
DA:24,1
DA:25,1
DA:26,1
DA:27,1
DA:28,1
DA:29,1
DA:30,1
DA:31,1
DA:32,1
DA:33,1
DA:34,1
DA:35,1
DA:36,1
DA:37,1
DA:38,1
DA:39,1
DA:40,1
DA:43,1
DA:44,1
DA:45,1
DA:46,1
DA:47,1
DA:48,1
DA:49,1
DA:50,1
DA:51,1
DA:52,1
DA:53,1
DA:54,1
DA:55,1
DA:56,1
DA:57,1
DA:58,1
DA:59,1
DA:60,1
DA:61,1
DA:62,1
DA:63,1
BRF:0
BRH:0
LF:46
LH:46
end_of_record
SF:/home/gil/Documents/Projects/proc-server/backend/src/main.rs
FN:21,_RNCINvMCs3JGymTfL39z_7backendNtB5_2Db3runNCNCNvNtNtB5_9api_pages10controller14get_by_page_id00INtNtCsgJAJTVk4Czu_4core6result6ResultNtNtBL_9db_entity6DbPageNtNtCskl7I60Z50mh_6diesel6result5ErrorEE0B5_
FN:21,_RNCINvMCs3JGymTfL39z_7backendNtB5_2Db3runNCNCNvNtNtB5_9api_pages10controller17delete_by_page_id00INtNtCsgJAJTVk4Czu_4core6result6ResultjNtNtCskl7I60Z50mh_6diesel6result5ErrorEE0B5_
FN:21,_RNCINvMCs3JGymTfL39z_7backendNtB5_2Db3runNCNCNvNtNtB5_9api_pages10controller17update_by_page_pk00INtNtCsgJAJTVk4Czu_4core6result6ResultjNtNtCskl7I60Z50mh_6diesel6result5ErrorEE0B5_
FN:21,_RNCINvMCs3JGymTfL39z_7backendNtB5_2Db3runNCNCNvNtNtB5_9api_pages10controller7get_all00INtNtCsgJAJTVk4Czu_4core6result6ResultINtNtCshNjZNSH433i_5alloc3vec3VecNtNtBL_9db_entity6DbPageENtNtCskl7I60Z50mh_6diesel6result5ErrorEE0B5_
FN:21,_RNCINvMCs3JGymTfL39z_7backendNtB5_2Db3runNCNCNvNtNtB5_9api_pages10controller8add_page00NtNtBL_9db_entity6DbPageE0B5_
FN:21,_RNCNvXs0_Cs3JGymTfL39z_7backendNtB7_2DbNtNtNtCsd1kUtcsOjZj_6rocket7request12from_request11FromRequest12from_request0B7_
FN:26,_RNCNvNvMs1_Cs3JGymTfL39z_7backendNtB9_5hello9into_info22monomorphized_function0B9_
FN:42,_RNCNvXs2_Cs3JGymTfL39z_7backendNtB7_4CORSNtNtCsd1kUtcsOjZj_6rocket7fairing7Fairing11on_response0B7_
FN:85,_RNvNtCs3JGymTfL39z_7backend4test16setup_connection
FN:60,_RNvCs3JGymTfL39z_7backend13create_rocket
FN:21,_RNvMCs3JGymTfL39z_7backendNtB2_2Db7fairing
FN:21,_RNvXs_Cs3JGymTfL39z_7backendNtB4_2DbNtNtCsd1kUtcsOjZj_6rocket8sentinel8Sentinel5abort
FN:21,_RNvXs0_Cs3JGymTfL39z_7backendNtB5_2DbNtNtNtCsd1kUtcsOjZj_6rocket7request12from_request11FromRequest12from_request
FN:27,_RNvCs3JGymTfL39z_7backend5hello
FN:26,_RNvMs1_Cs3JGymTfL39z_7backendNtB5_5hello9into_info
FN:26,_RNvNvMs1_Cs3JGymTfL39z_7backendNtB7_5hello9into_info22monomorphized_function
FN:26,_RNvMs1_Cs3JGymTfL39z_7backendNtB5_5hello10into_route
FN:35,_RNvXs2_Cs3JGymTfL39z_7backendNtB5_4CORSNtNtCsd1kUtcsOjZj_6rocket7fairing7Fairing4info
FN:42,_RNvXs2_Cs3JGymTfL39z_7backendNtB5_4CORSNtNtCsd1kUtcsOjZj_6rocket7fairing7Fairing11on_response
FN:93,_RINvNtCs3JGymTfL39z_7backend4test8run_testNCNCNvNtNtNtB4_9api_pages10controller4tests_13get_all_pages00EB4_
FN:93,_RINvNtCs3JGymTfL39z_7backend4test8run_testNCNCNvNtNtNtB4_9api_pages10controller4tests_14add_page_to_db00EB4_
FN:93,_RINvNtCs3JGymTfL39z_7backend4test8run_testNCNCNvNtNtNtB4_9api_pages10controller4tests_17get_pages_via_api00EB4_
FN:93,_RINvNtCs3JGymTfL39z_7backend4test8run_testNCNCNvNtNtNtB4_9api_pages10controller4tests_22get_page_by_id_via_api00EB4_
FN:93,_RINvNtCs3JGymTfL39z_7backend4test8run_testNCNCNvNtNtNtB4_9api_pages10controller4tests_22update_page_by_page_id00EB4_
FN:93,_RINvNtCs3JGymTfL39z_7backend4test8run_testNCNCNvNtNtNtB4_9api_pages10controller4tests_25delete_page_by_id_via_api00EB4_
FN:93,_RINvNtCs3JGymTfL39z_7backend4test8run_testNCNCNvNtNtNtB4_9api_pages10controller4tests_30get_page_by_id_via_api_failing00EB4_
FN:93,_RINvNtCs3JGymTfL39z_7backend4test8run_testNCNCNvNtNtNtB4_9api_pages10controller4tests_30update_page_by_page_id_failing00EB4_
FN:93,_RINvNtCs3JGymTfL39z_7backend4test8run_testNCNCNvNtNtNtB4_9api_pages10controller4tests_32add_page_via_api_with_db_storage00EB4_
FN:93,_RINvNtCs3JGymTfL39z_7backend4test8run_testNCNCNvNtNtNtB4_9api_pages10controller4tests_33delete_page_by_id_via_api_failing00EB4_
FN:97,_RNCINvNtCs3JGymTfL39z_7backend4test8run_testNCNCNvNtNtNtB6_9api_pages10controller4tests_13get_all_pages00E0B6_
FN:97,_RNCINvNtCs3JGymTfL39z_7backend4test8run_testNCNCNvNtNtNtB6_9api_pages10controller4tests_14add_page_to_db00E0B6_
FN:97,_RNCINvNtCs3JGymTfL39z_7backend4test8run_testNCNCNvNtNtNtB6_9api_pages10controller4tests_17get_pages_via_api00E0B6_
FN:97,_RNCINvNtCs3JGymTfL39z_7backend4test8run_testNCNCNvNtNtNtB6_9api_pages10controller4tests_22get_page_by_id_via_api00E0B6_
FN:97,_RNCINvNtCs3JGymTfL39z_7backend4test8run_testNCNCNvNtNtNtB6_9api_pages10controller4tests_22update_page_by_page_id00E0B6_
FN:97,_RNCINvNtCs3JGymTfL39z_7backend4test8run_testNCNCNvNtNtNtB6_9api_pages10controller4tests_25delete_page_by_id_via_api00E0B6_
FN:97,_RNCINvNtCs3JGymTfL39z_7backend4test8run_testNCNCNvNtNtNtB6_9api_pages10controller4tests_30get_page_by_id_via_api_failing00E0B6_
FN:97,_RNCINvNtCs3JGymTfL39z_7backend4test8run_testNCNCNvNtNtNtB6_9api_pages10controller4tests_30update_page_by_page_id_failing00E0B6_
FN:97,_RNCINvNtCs3JGymTfL39z_7backend4test8run_testNCNCNvNtNtNtB6_9api_pages10controller4tests_32add_page_via_api_with_db_storage00E0B6_
FN:97,_RNCINvNtCs3JGymTfL39z_7backend4test8run_testNCNCNvNtNtNtB6_9api_pages10controller4tests_33delete_page_by_id_via_api_failing00E0B6_
FN:21,_RINvMCs3JGymTfL39z_7backendNtB3_2Db4poolpEB3_
FN:21,_RNCINvMCs3JGymTfL39z_7backendNtB5_2Db7get_onepE0B5_
FN:70,_RNvCs3JGymTfL39z_7backend4main
FN:70,_RNCNvCs3JGymTfL39z_7backend4main0B3_
FNDA:2,_RNCINvMCs3JGymTfL39z_7backendNtB5_2Db3runNCNCNvNtNtB5_9api_pages10controller14get_by_page_id00INtNtCsgJAJTVk4Czu_4core6result6ResultNtNtBL_9db_entity6DbPageNtNtCskl7I60Z50mh_6diesel6result5ErrorEE0B5_
FNDA:2,_RNCINvMCs3JGymTfL39z_7backendNtB5_2Db3runNCNCNvNtNtB5_9api_pages10controller17delete_by_page_id00INtNtCsgJAJTVk4Czu_4core6result6ResultjNtNtCskl7I60Z50mh_6diesel6result5ErrorEE0B5_
FNDA:2,_RNCINvMCs3JGymTfL39z_7backendNtB5_2Db3runNCNCNvNtNtB5_9api_pages10controller17update_by_page_pk00INtNtCsgJAJTVk4Czu_4core6result6ResultjNtNtCskl7I60Z50mh_6diesel6result5ErrorEE0B5_
FNDA:1,_RNCINvMCs3JGymTfL39z_7backendNtB5_2Db3runNCNCNvNtNtB5_9api_pages10controller7get_all00INtNtCsgJAJTVk4Czu_4core6result6ResultINtNtCshNjZNSH433i_5alloc3vec3VecNtNtBL_9db_entity6DbPageENtNtCskl7I60Z50mh_6diesel6result5ErrorEE0B5_
FNDA:1,_RNCINvMCs3JGymTfL39z_7backendNtB5_2Db3runNCNCNvNtNtB5_9api_pages10controller8add_page00NtNtBL_9db_entity6DbPageE0B5_
FNDA:8,_RNCNvXs0_Cs3JGymTfL39z_7backendNtB7_2DbNtNtNtCsd1kUtcsOjZj_6rocket7request12from_request11FromRequest12from_request0B7_
FNDA:0,_RNCNvNvMs1_Cs3JGymTfL39z_7backendNtB9_5hello9into_info22monomorphized_function0B9_
FNDA:7,_RNCNvXs2_Cs3JGymTfL39z_7backendNtB7_4CORSNtNtCsd1kUtcsOjZj_6rocket7fairing7Fairing11on_response0B7_
FNDA:10,_RNvNtCs3JGymTfL39z_7backend4test16setup_connection
FNDA:7,_RNvCs3JGymTfL39z_7backend13create_rocket
FNDA:8,_RNvMCs3JGymTfL39z_7backendNtB2_2Db7fairing
FNDA:8,_RNvXs_Cs3JGymTfL39z_7backendNtB4_2DbNtNtCsd1kUtcsOjZj_6rocket8sentinel8Sentinel5abort
FNDA:8,_RNvXs0_Cs3JGymTfL39z_7backendNtB5_2DbNtNtNtCsd1kUtcsOjZj_6rocket7request12from_request11FromRequest12from_request
FNDA:0,_RNvCs3JGymTfL39z_7backend5hello
FNDA:7,_RNvMs1_Cs3JGymTfL39z_7backendNtB5_5hello9into_info
FNDA:0,_RNvNvMs1_Cs3JGymTfL39z_7backendNtB7_5hello9into_info22monomorphized_function
FNDA:7,_RNvMs1_Cs3JGymTfL39z_7backendNtB5_5hello10into_route
FNDA:21,_RNvXs2_Cs3JGymTfL39z_7backendNtB5_4CORSNtNtCsd1kUtcsOjZj_6rocket7fairing7Fairing4info
FNDA:7,_RNvXs2_Cs3JGymTfL39z_7backendNtB5_4CORSNtNtCsd1kUtcsOjZj_6rocket7fairing7Fairing11on_response
FNDA:1,_RINvNtCs3JGymTfL39z_7backend4test8run_testNCNCNvNtNtNtB4_9api_pages10controller4tests_13get_all_pages00EB4_
FNDA:1,_RINvNtCs3JGymTfL39z_7backend4test8run_testNCNCNvNtNtNtB4_9api_pages10controller4tests_14add_page_to_db00EB4_
FNDA:1,_RINvNtCs3JGymTfL39z_7backend4test8run_testNCNCNvNtNtNtB4_9api_pages10controller4tests_17get_pages_via_api00EB4_
FNDA:1,_RINvNtCs3JGymTfL39z_7backend4test8run_testNCNCNvNtNtNtB4_9api_pages10controller4tests_22get_page_by_id_via_api00EB4_
FNDA:1,_RINvNtCs3JGymTfL39z_7backend4test8run_testNCNCNvNtNtNtB4_9api_pages10controller4tests_22update_page_by_page_id00EB4_
FNDA:1,_RINvNtCs3JGymTfL39z_7backend4test8run_testNCNCNvNtNtNtB4_9api_pages10controller4tests_25delete_page_by_id_via_api00EB4_
FNDA:1,_RINvNtCs3JGymTfL39z_7backend4test8run_testNCNCNvNtNtNtB4_9api_pages10controller4tests_30get_page_by_id_via_api_failing00EB4_
FNDA:1,_RINvNtCs3JGymTfL39z_7backend4test8run_testNCNCNvNtNtNtB4_9api_pages10controller4tests_30update_page_by_page_id_failing00EB4_
FNDA:1,_RINvNtCs3JGymTfL39z_7backend4test8run_testNCNCNvNtNtNtB4_9api_pages10controller4tests_32add_page_via_api_with_db_storage00EB4_
FNDA:1,_RINvNtCs3JGymTfL39z_7backend4test8run_testNCNCNvNtNtNtB4_9api_pages10controller4tests_33delete_page_by_id_via_api_failing00EB4_
FNDA:1,_RNCINvNtCs3JGymTfL39z_7backend4test8run_testNCNCNvNtNtNtB6_9api_pages10controller4tests_13get_all_pages00E0B6_
FNDA:1,_RNCINvNtCs3JGymTfL39z_7backend4test8run_testNCNCNvNtNtNtB6_9api_pages10controller4tests_14add_page_to_db00E0B6_
FNDA:1,_RNCINvNtCs3JGymTfL39z_7backend4test8run_testNCNCNvNtNtNtB6_9api_pages10controller4tests_17get_pages_via_api00E0B6_
FNDA:1,_RNCINvNtCs3JGymTfL39z_7backend4test8run_testNCNCNvNtNtNtB6_9api_pages10controller4tests_22get_page_by_id_via_api00E0B6_
FNDA:1,_RNCINvNtCs3JGymTfL39z_7backend4test8run_testNCNCNvNtNtNtB6_9api_pages10controller4tests_22update_page_by_page_id00E0B6_
FNDA:1,_RNCINvNtCs3JGymTfL39z_7backend4test8run_testNCNCNvNtNtNtB6_9api_pages10controller4tests_25delete_page_by_id_via_api00E0B6_
FNDA:1,_RNCINvNtCs3JGymTfL39z_7backend4test8run_testNCNCNvNtNtNtB6_9api_pages10controller4tests_30get_page_by_id_via_api_failing00E0B6_
FNDA:1,_RNCINvNtCs3JGymTfL39z_7backend4test8run_testNCNCNvNtNtNtB6_9api_pages10controller4tests_30update_page_by_page_id_failing00E0B6_
FNDA:1,_RNCINvNtCs3JGymTfL39z_7backend4test8run_testNCNCNvNtNtNtB6_9api_pages10controller4tests_32add_page_via_api_with_db_storage00E0B6_
FNDA:1,_RNCINvNtCs3JGymTfL39z_7backend4test8run_testNCNCNvNtNtNtB6_9api_pages10controller4tests_33delete_page_by_id_via_api_failing00E0B6_
FNDA:0,_RINvMCs3JGymTfL39z_7backendNtB3_2Db4poolpEB3_
FNDA:0,_RNCINvMCs3JGymTfL39z_7backendNtB5_2Db7get_onepE0B5_
FNDA:0,_RNvCs3JGymTfL39z_7backend4main
FNDA:0,_RNCNvCs3JGymTfL39z_7backend4main0B3_
FNF:12
FNH:9
DA:21,16
DA:26,14
DA:27,0
DA:28,0
DA:29,0
DA:35,21
DA:36,21
DA:37,21
DA:38,21
DA:39,21
DA:40,21
DA:42,7
DA:43,7
DA:44,7
DA:45,7
DA:46,7
DA:47,7
DA:48,7
DA:49,7
DA:50,7
DA:51,7
DA:52,0
DA:53,0
DA:54,0
DA:55,0
DA:56,7
DA:57,7
DA:60,7
DA:61,7
DA:62,7
DA:63,7
DA:64,7
DA:65,7
DA:66,7
DA:67,7
DA:70,0
DA:71,0
DA:72,0
DA:73,0
DA:74,0
DA:75,0
DA:76,0
DA:85,10
DA:86,10
DA:87,10
DA:88,10
DA:89,10
DA:90,10
DA:91,10
DA:93,10
DA:94,10
DA:95,10
DA:96,10
DA:97,10
DA:98,10
DA:99,10
BRF:0
BRH:0
LF:78
LH:59
end_of_record
SF:/home/gil/Documents/Projects/proc-server/backend/src/schema.rs
FN:23,_RNvXs_NtNtCs3JGymTfL39z_7backend6schema5pagesNtB4_5tableNtNtCskl7I60Z50mh_6diesel12query_source11QuerySource11from_clause
FN:23,_RNvXs_NtNtCs3JGymTfL39z_7backend6schema5pagesNtB4_5tableNtNtCskl7I60Z50mh_6diesel12query_source11QuerySource17default_selection
FN:23,_RNvXs2_NtNtCs3JGymTfL39z_7backend6schema5pagesNtB5_5tableNtNtCskl7I60Z50mh_6diesel13query_builder7AsQuery8as_query
FN:23,_RNvXs3_NtNtCs3JGymTfL39z_7backend6schema5pagesNtB5_5tableNtNtCskl7I60Z50mh_6diesel12query_source5Table11all_columns
FN:23,_RNvXs4_NtNtCs3JGymTfL39z_7backend6schema5pagesNtB5_5tableNtNtCskl7I60Z50mh_6diesel12associations8HasTable5table
FN:3,_RNvMNtNtCs3JGymTfL39z_7backend6schema5formsNtB2_5table4star
FN:3,_RNvXs_NtNtCs3JGymTfL39z_7backend6schema5formsNtB4_5tableNtNtCskl7I60Z50mh_6diesel12query_source11QuerySource11from_clause
FN:3,_RNvXs_NtNtCs3JGymTfL39z_7backend6schema5formsNtB4_5tableNtNtCskl7I60Z50mh_6diesel12query_source11QuerySource17default_selection
FN:3,_RNvXININtNtCs3JGymTfL39z_7backend6schema5formss0_0pENtB5_5tableINtNtCskl7I60Z50mh_6diesel13query_builder13QueryFragmentpE8walk_astB9_
FN:3,_RNvXs2_NtNtCs3JGymTfL39z_7backend6schema5formsNtB5_5tableNtNtCskl7I60Z50mh_6diesel13query_builder7AsQuery8as_query
FN:3,_RNvXs3_NtNtCs3JGymTfL39z_7backend6schema5formsNtB5_5tableNtNtCskl7I60Z50mh_6diesel12query_source5Table11primary_key
FN:3,_RNvXs3_NtNtCs3JGymTfL39z_7backend6schema5formsNtB5_5tableNtNtCskl7I60Z50mh_6diesel12query_source5Table11all_columns
FN:3,_RNvXs4_NtNtCs3JGymTfL39z_7backend6schema5formsNtB5_5tableNtNtCskl7I60Z50mh_6diesel12associations8HasTable5table
FN:3,_RNvXs5_NtNtCs3JGymTfL39z_7backend6schema5formsNtB5_5tableNtNtNtNtCskl7I60Z50mh_6diesel13query_builder16update_statement6target16IntoUpdateTarget18into_update_target
FN:3,_RNvXININtNtCs3JGymTfL39z_7backend6schema5formssa_0ppENtB5_5tableINtNtNtNtCskl7I60Z50mh_6diesel12query_source8aliasing18field_alias_mapper48FieldAliasMapperAssociatedTypesDisjointnessTrickBP_ppE3mapB9_
FN:3,_RNvXININtNtCs3JGymTfL39z_7backend6schema5formssc_0pppENtB5_5tableINtNtNtCskl7I60Z50mh_6diesel12query_source5joins6JoinToINtB14_4JoinpppEE11join_targetB9_
FN:3,_RNvXININtNtCs3JGymTfL39z_7backend6schema5formssd_0ppENtB5_5tableINtNtNtCskl7I60Z50mh_6diesel12query_source5joins6JoinToINtB13_6JoinOnppEE11join_targetB9_
FN:3,_RNvXININtNtCs3JGymTfL39z_7backend6schema5formsse_0ppppppppENtB5_5tableINtNtNtCskl7I60Z50mh_6diesel12query_source5joins6JoinToINtNtNtB1d_13query_builder16select_statement15SelectStatementINtNtB24_11from_clause10FromClausepEpppppppEE11join_targetB9_
FN:3,_RNvXININtNtCs3JGymTfL39z_7backend6schema5formssf_0pppENtB5_5tableINtNtNtCskl7I60Z50mh_6diesel12query_source5joins6JoinToINtNtNtNtB18_13query_builder16select_statement5boxed20BoxedSelectStatementINtNtB21_11from_clause10FromClausepEppEE11join_targetB9_
FN:3,_RNvXININtNtCs3JGymTfL39z_7backend6schema5formssg_0pENtB5_5tableINtNtNtCskl7I60Z50mh_6diesel12query_source5joins6JoinToINtNtNtB14_8aliasing5alias5AliaspEE11join_targetB9_
FN:3,_RNvXININtNtCs3JGymTfL39z_7backend6schema5formssh_0pENtB5_5tableINtNtCskl7I60Z50mh_6diesel10insertable10InsertablepE6valuesB9_
FN:3,_RNvXININtNtCs3JGymTfL39z_7backend6schema5formssi_0pERNtB5_5tableINtNtCskl7I60Z50mh_6diesel10insertable10InsertablepE6valuesB9_
FN:3,_RNvXININtNtCs3JGymTfL39z_7backend6schema5formssj_0pENtB5_5tableINtNtNtCskl7I60Z50mh_6diesel12query_source5joins6JoinToINtNtNtNtB16_2pg13query_builder4only4OnlypEE11join_targetB9_
FN:3,_RNvXININtNtNtCs3JGymTfL39z_7backend6schema5forms7columnss0_0pENtB5_4starINtNtCskl7I60Z50mh_6diesel13query_builder13QueryFragmentpE8walk_astBb_
FN:5,_RNvXININtNtNtCs3JGymTfL39z_7backend6schema5forms7columnss4_0pENtB5_7form_pkINtNtCskl7I60Z50mh_6diesel13query_builder13QueryFragmentpE8walk_astBb_
FN:5,_RNvXININtNtNtCs3JGymTfL39z_7backend6schema5forms7columnssf_0pENtB5_7form_pkINtNtNtCskl7I60Z50mh_6diesel18expression_methods6eq_all5EqAllpE6eq_allBb_
FN:3,_RNvXININtNtNtCs3JGymTfL39z_7backend6schema5forms7columnssg_0pENtB5_7form_pkINtNtNtCsgJAJTVk4Czu_4core3ops5arith3AddpE3addBb_
FN:3,_RNvXININtNtNtCs3JGymTfL39z_7backend6schema5forms7columnssh_0pENtB5_7form_pkINtNtNtCsgJAJTVk4Czu_4core3ops5arith3SubpE3subBb_
FN:3,_RNvXININtNtNtCs3JGymTfL39z_7backend6schema5forms7columnssi_0pENtB5_7form_pkINtNtNtCsgJAJTVk4Czu_4core3ops5arith3DivpE3divBb_
FN:3,_RNvXININtNtNtCs3JGymTfL39z_7backend6schema5forms7columnssj_0pENtB5_7form_pkINtNtNtCsgJAJTVk4Czu_4core3ops5arith3MulpE3mulBb_
FN:6,_RNvXININtNtNtCs3JGymTfL39z_7backend6schema5forms7columnssn_0pENtB5_7form_idINtNtCskl7I60Z50mh_6diesel13query_builder13QueryFragmentpE8walk_astBb_
FN:6,_RNvXININtNtNtCs3JGymTfL39z_7backend6schema5forms7columnssy_0pENtB5_7form_idINtNtNtCskl7I60Z50mh_6diesel18expression_methods6eq_all5EqAllpE6eq_allBb_
FN:7,_RNvXININtNtNtCs3JGymTfL39z_7backend6schema5forms7columnssC_0pENtB5_4nameINtNtCskl7I60Z50mh_6diesel13query_builder13QueryFragmentpE8walk_astBb_
FN:7,_RNvXININtNtNtCs3JGymTfL39z_7backend6schema5forms7columnssN_0pENtB5_4nameINtNtNtCskl7I60Z50mh_6diesel18expression_methods6eq_all5EqAllpE6eq_allBb_
FN:8,_RNvXININtNtNtCs3JGymTfL39z_7backend6schema5forms7columnssR_0pENtB5_10created_atINtNtCskl7I60Z50mh_6diesel13query_builder13QueryFragmentpE8walk_astBb_
FN:8,_RNvXININtNtNtCs3JGymTfL39z_7backend6schema5forms7columnss12_0pENtB5_10created_atINtNtNtCskl7I60Z50mh_6diesel18expression_methods6eq_all5EqAllpE6eq_allBb_
FN:3,_RNvXININtNtNtCs3JGymTfL39z_7backend6schema5forms7columnss13_0pENtB5_10created_atINtNtNtCsgJAJTVk4Czu_4core3ops5arith3AddpE3addBb_
FN:3,_RNvXININtNtNtCs3JGymTfL39z_7backend6schema5forms7columnss14_0pENtB5_10created_atINtNtNtCsgJAJTVk4Czu_4core3ops5arith3SubpE3subBb_
FN:9,_RNvXININtNtNtCs3JGymTfL39z_7backend6schema5forms7columnss18_0pENtB5_4dataINtNtCskl7I60Z50mh_6diesel13query_builder13QueryFragmentpE8walk_astBb_
FN:9,_RNvXININtNtNtCs3JGymTfL39z_7backend6schema5forms7columnss1j_0pENtB5_4dataINtNtNtCskl7I60Z50mh_6diesel18expression_methods6eq_all5EqAllpE6eq_allBb_
FN:13,_RNvMNtNtCs3JGymTfL39z_7backend6schema7layoutsNtB2_5table4star
FN:13,_RNvXs_NtNtCs3JGymTfL39z_7backend6schema7layoutsNtB4_5tableNtNtCskl7I60Z50mh_6diesel12query_source11QuerySource11from_clause
FN:13,_RNvXs_NtNtCs3JGymTfL39z_7backend6schema7layoutsNtB4_5tableNtNtCskl7I60Z50mh_6diesel12query_source11QuerySource17default_selection
FN:13,_RNvXININtNtCs3JGymTfL39z_7backend6schema7layoutss0_0pENtB5_5tableINtNtCskl7I60Z50mh_6diesel13query_builder13QueryFragmentpE8walk_astB9_
FN:13,_RNvXs2_NtNtCs3JGymTfL39z_7backend6schema7layoutsNtB5_5tableNtNtCskl7I60Z50mh_6diesel13query_builder7AsQuery8as_query
FN:13,_RNvXs3_NtNtCs3JGymTfL39z_7backend6schema7layoutsNtB5_5tableNtNtCskl7I60Z50mh_6diesel12query_source5Table11primary_key
FN:13,_RNvXs3_NtNtCs3JGymTfL39z_7backend6schema7layoutsNtB5_5tableNtNtCskl7I60Z50mh_6diesel12query_source5Table11all_columns
FN:13,_RNvXs4_NtNtCs3JGymTfL39z_7backend6schema7layoutsNtB5_5tableNtNtCskl7I60Z50mh_6diesel12associations8HasTable5table
FN:13,_RNvXs5_NtNtCs3JGymTfL39z_7backend6schema7layoutsNtB5_5tableNtNtNtNtCskl7I60Z50mh_6diesel13query_builder16update_statement6target16IntoUpdateTarget18into_update_target
FN:13,_RNvXININtNtCs3JGymTfL39z_7backend6schema7layoutssa_0ppENtB5_5tableINtNtNtNtCskl7I60Z50mh_6diesel12query_source8aliasing18field_alias_mapper48FieldAliasMapperAssociatedTypesDisjointnessTrickBR_ppE3mapB9_
FN:13,_RNvXININtNtCs3JGymTfL39z_7backend6schema7layoutssc_0pppENtB5_5tableINtNtNtCskl7I60Z50mh_6diesel12query_source5joins6JoinToINtB16_4JoinpppEE11join_targetB9_
FN:13,_RNvXININtNtCs3JGymTfL39z_7backend6schema7layoutssd_0ppENtB5_5tableINtNtNtCskl7I60Z50mh_6diesel12query_source5joins6JoinToINtB15_6JoinOnppEE11join_targetB9_
FN:13,_RNvXININtNtCs3JGymTfL39z_7backend6schema7layoutsse_0ppppppppENtB5_5tableINtNtNtCskl7I60Z50mh_6diesel12query_source5joins6JoinToINtNtNtB1f_13query_builder16select_statement15SelectStatementINtNtB26_11from_clause10FromClausepEpppppppEE11join_targetB9_
FN:13,_RNvXININtNtCs3JGymTfL39z_7backend6schema7layoutssf_0pppENtB5_5tableINtNtNtCskl7I60Z50mh_6diesel12query_source5joins6JoinToINtNtNtNtB1a_13query_builder16select_statement5boxed20BoxedSelectStatementINtNtB23_11from_clause10FromClausepEppEE11join_targetB9_
FN:13,_RNvXININtNtCs3JGymTfL39z_7backend6schema7layoutssg_0pENtB5_5tableINtNtNtCskl7I60Z50mh_6diesel12query_source5joins6JoinToINtNtNtB16_8aliasing5alias5AliaspEE11join_targetB9_
FN:13,_RNvXININtNtCs3JGymTfL39z_7backend6schema7layoutssh_0pENtB5_5tableINtNtCskl7I60Z50mh_6diesel10insertable10InsertablepE6valuesB9_
FN:13,_RNvXININtNtCs3JGymTfL39z_7backend6schema7layoutssi_0pERNtB5_5tableINtNtCskl7I60Z50mh_6diesel10insertable10InsertablepE6valuesB9_
FN:13,_RNvXININtNtCs3JGymTfL39z_7backend6schema7layoutssj_0pENtB5_5tableINtNtNtCskl7I60Z50mh_6diesel12query_source5joins6JoinToINtNtNtNtB18_2pg13query_builder4only4OnlypEE11join_targetB9_
FN:13,_RNvXININtNtNtCs3JGymTfL39z_7backend6schema7layouts7columnss0_0pENtB5_4starINtNtCskl7I60Z50mh_6diesel13query_builder13QueryFragmentpE8walk_astBb_
FN:15,_RNvXININtNtNtCs3JGymTfL39z_7backend6schema7layouts7columnss4_0pENtB5_9layout_pkINtNtCskl7I60Z50mh_6diesel13query_builder13QueryFragmentpE8walk_astBb_
FN:15,_RNvXININtNtNtCs3JGymTfL39z_7backend6schema7layouts7columnssf_0pENtB5_9layout_pkINtNtNtCskl7I60Z50mh_6diesel18expression_methods6eq_all5EqAllpE6eq_allBb_
FN:13,_RNvXININtNtNtCs3JGymTfL39z_7backend6schema7layouts7columnssg_0pENtB5_9layout_pkINtNtNtCsgJAJTVk4Czu_4core3ops5arith3AddpE3addBb_
FN:13,_RNvXININtNtNtCs3JGymTfL39z_7backend6schema7layouts7columnssh_0pENtB5_9layout_pkINtNtNtCsgJAJTVk4Czu_4core3ops5arith3SubpE3subBb_
FN:13,_RNvXININtNtNtCs3JGymTfL39z_7backend6schema7layouts7columnssi_0pENtB5_9layout_pkINtNtNtCsgJAJTVk4Czu_4core3ops5arith3DivpE3divBb_
FN:13,_RNvXININtNtNtCs3JGymTfL39z_7backend6schema7layouts7columnssj_0pENtB5_9layout_pkINtNtNtCsgJAJTVk4Czu_4core3ops5arith3MulpE3mulBb_
FN:16,_RNvXININtNtNtCs3JGymTfL39z_7backend6schema7layouts7columnssn_0pENtB5_9layout_idINtNtCskl7I60Z50mh_6diesel13query_builder13QueryFragmentpE8walk_astBb_
FN:16,_RNvXININtNtNtCs3JGymTfL39z_7backend6schema7layouts7columnssy_0pENtB5_9layout_idINtNtNtCskl7I60Z50mh_6diesel18expression_methods6eq_all5EqAllpE6eq_allBb_
FN:17,_RNvXININtNtNtCs3JGymTfL39z_7backend6schema7layouts7columnssC_0pENtB5_4nameINtNtCskl7I60Z50mh_6diesel13query_builder13QueryFragmentpE8walk_astBb_
FN:17,_RNvXININtNtNtCs3JGymTfL39z_7backend6schema7layouts7columnssN_0pENtB5_4nameINtNtNtCskl7I60Z50mh_6diesel18expression_methods6eq_all5EqAllpE6eq_allBb_
FN:18,_RNvXININtNtNtCs3JGymTfL39z_7backend6schema7layouts7columnssR_0pENtB5_10created_atINtNtCskl7I60Z50mh_6diesel13query_builder13QueryFragmentpE8walk_astBb_
FN:18,_RNvXININtNtNtCs3JGymTfL39z_7backend6schema7layouts7columnss12_0pENtB5_10created_atINtNtNtCskl7I60Z50mh_6diesel18expression_methods6eq_all5EqAllpE6eq_allBb_
FN:13,_RNvXININtNtNtCs3JGymTfL39z_7backend6schema7layouts7columnss13_0pENtB5_10created_atINtNtNtCsgJAJTVk4Czu_4core3ops5arith3AddpE3addBb_
FN:13,_RNvXININtNtNtCs3JGymTfL39z_7backend6schema7layouts7columnss14_0pENtB5_10created_atINtNtNtCsgJAJTVk4Czu_4core3ops5arith3SubpE3subBb_
FN:19,_RNvXININtNtNtCs3JGymTfL39z_7backend6schema7layouts7columnss18_0pENtB5_4dataINtNtCskl7I60Z50mh_6diesel13query_builder13QueryFragmentpE8walk_astBb_
FN:19,_RNvXININtNtNtCs3JGymTfL39z_7backend6schema7layouts7columnss1j_0pENtB5_4dataINtNtNtCskl7I60Z50mh_6diesel18expression_methods6eq_all5EqAllpE6eq_allBb_
FN:23,_RNvMNtNtCs3JGymTfL39z_7backend6schema5pagesNtB2_5table4star
FN:23,_RNvXININtNtCs3JGymTfL39z_7backend6schema5pagess0_0pENtB5_5tableINtNtCskl7I60Z50mh_6diesel13query_builder13QueryFragmentpE8walk_astB9_
FN:23,_RNvXs3_NtNtCs3JGymTfL39z_7backend6schema5pagesNtB5_5tableNtNtCskl7I60Z50mh_6diesel12query_source5Table11primary_key
FN:23,_RNvXs5_NtNtCs3JGymTfL39z_7backend6schema5pagesNtB5_5tableNtNtNtNtCskl7I60Z50mh_6diesel13query_builder16update_statement6target16IntoUpdateTarget18into_update_target
FN:23,_RNvXININtNtCs3JGymTfL39z_7backend6schema5pagessa_0ppENtB5_5tableINtNtNtNtCskl7I60Z50mh_6diesel12query_source8aliasing18field_alias_mapper48FieldAliasMapperAssociatedTypesDisjointnessTrickBP_ppE3mapB9_
FN:23,_RNvXININtNtCs3JGymTfL39z_7backend6schema5pagessc_0pppENtB5_5tableINtNtNtCskl7I60Z50mh_6diesel12query_source5joins6JoinToINtB14_4JoinpppEE11join_targetB9_
FN:23,_RNvXININtNtCs3JGymTfL39z_7backend6schema5pagessd_0ppENtB5_5tableINtNtNtCskl7I60Z50mh_6diesel12query_source5joins6JoinToINtB13_6JoinOnppEE11join_targetB9_
FN:23,_RNvXININtNtCs3JGymTfL39z_7backend6schema5pagesse_0ppppppppENtB5_5tableINtNtNtCskl7I60Z50mh_6diesel12query_source5joins6JoinToINtNtNtB1d_13query_builder16select_statement15SelectStatementINtNtB24_11from_clause10FromClausepEpppppppEE11join_targetB9_
FN:23,_RNvXININtNtCs3JGymTfL39z_7backend6schema5pagessf_0pppENtB5_5tableINtNtNtCskl7I60Z50mh_6diesel12query_source5joins6JoinToINtNtNtNtB18_13query_builder16select_statement5boxed20BoxedSelectStatementINtNtB21_11from_clause10FromClausepEppEE11join_targetB9_
FN:23,_RNvXININtNtCs3JGymTfL39z_7backend6schema5pagessg_0pENtB5_5tableINtNtNtCskl7I60Z50mh_6diesel12query_source5joins6JoinToINtNtNtB14_8aliasing5alias5AliaspEE11join_targetB9_
FN:23,_RNvXININtNtCs3JGymTfL39z_7backend6schema5pagessh_0pENtB5_5tableINtNtCskl7I60Z50mh_6diesel10insertable10InsertablepE6valuesB9_
FN:23,_RNvXININtNtCs3JGymTfL39z_7backend6schema5pagessi_0pERNtB5_5tableINtNtCskl7I60Z50mh_6diesel10insertable10InsertablepE6valuesB9_
FN:23,_RNvXININtNtCs3JGymTfL39z_7backend6schema5pagessj_0pENtB5_5tableINtNtNtCskl7I60Z50mh_6diesel12query_source5joins6JoinToINtNtNtNtB16_2pg13query_builder4only4OnlypEE11join_targetB9_
FN:23,_RNvXININtNtNtCs3JGymTfL39z_7backend6schema5pages7columnss0_0pENtB5_4starINtNtCskl7I60Z50mh_6diesel13query_builder13QueryFragmentpE8walk_astBb_
FN:25,_RNvXININtNtNtCs3JGymTfL39z_7backend6schema5pages7columnssf_0pENtB5_7page_pkINtNtNtCskl7I60Z50mh_6diesel18expression_methods6eq_all5EqAllpE6eq_allBb_
FN:23,_RNvXININtNtNtCs3JGymTfL39z_7backend6schema5pages7columnssg_0pENtB5_7page_pkINtNtNtCsgJAJTVk4Czu_4core3ops5arith3AddpE3addBb_
FN:23,_RNvXININtNtNtCs3JGymTfL39z_7backend6schema5pages7columnssh_0pENtB5_7page_pkINtNtNtCsgJAJTVk4Czu_4core3ops5arith3SubpE3subBb_
FN:23,_RNvXININtNtNtCs3JGymTfL39z_7backend6schema5pages7columnssi_0pENtB5_7page_pkINtNtNtCsgJAJTVk4Czu_4core3ops5arith3DivpE3divBb_
FN:23,_RNvXININtNtNtCs3JGymTfL39z_7backend6schema5pages7columnssj_0pENtB5_7page_pkINtNtNtCsgJAJTVk4Czu_4core3ops5arith3MulpE3mulBb_
FN:26,_RNvXININtNtNtCs3JGymTfL39z_7backend6schema5pages7columnssy_0pENtB5_7page_idINtNtNtCskl7I60Z50mh_6diesel18expression_methods6eq_all5EqAllpE6eq_allBb_
FN:27,_RNvXININtNtNtCs3JGymTfL39z_7backend6schema5pages7columnssN_0pENtB5_4nameINtNtNtCskl7I60Z50mh_6diesel18expression_methods6eq_all5EqAllpE6eq_allBb_
FN:28,_RNvXININtNtNtCs3JGymTfL39z_7backend6schema5pages7columnss12_0pENtB5_10created_atINtNtNtCskl7I60Z50mh_6diesel18expression_methods6eq_all5EqAllpE6eq_allBb_
FN:23,_RNvXININtNtNtCs3JGymTfL39z_7backend6schema5pages7columnss13_0pENtB5_10created_atINtNtNtCsgJAJTVk4Czu_4core3ops5arith3AddpE3addBb_
FN:23,_RNvXININtNtNtCs3JGymTfL39z_7backend6schema5pages7columnss14_0pENtB5_10created_atINtNtNtCsgJAJTVk4Czu_4core3ops5arith3SubpE3subBb_
FN:29,_RNvXININtNtNtCs3JGymTfL39z_7backend6schema5pages7columnss18_0pENtB5_4dataINtNtCskl7I60Z50mh_6diesel13query_builder13QueryFragmentpE8walk_astBb_
FN:29,_RNvXININtNtNtCs3JGymTfL39z_7backend6schema5pages7columnss1j_0pENtB5_4dataINtNtNtCskl7I60Z50mh_6diesel18expression_methods6eq_all5EqAllpE6eq_allBb_
FN:33,_RNvMNtNtCs3JGymTfL39z_7backend6schema22single_page_connectionNtB2_5table4star
FN:33,_RNvXs_NtNtCs3JGymTfL39z_7backend6schema22single_page_connectionNtB4_5tableNtNtCskl7I60Z50mh_6diesel12query_source11QuerySource11from_clause
FN:33,_RNvXs_NtNtCs3JGymTfL39z_7backend6schema22single_page_connectionNtB4_5tableNtNtCskl7I60Z50mh_6diesel12query_source11QuerySource17default_selection
FN:33,_RNvXININtNtCs3JGymTfL39z_7backend6schema22single_page_connections0_0pENtB5_5tableINtNtCskl7I60Z50mh_6diesel13query_builder13QueryFragmentpE8walk_astB9_
FN:33,_RNvXs2_NtNtCs3JGymTfL39z_7backend6schema22single_page_connectionNtB5_5tableNtNtCskl7I60Z50mh_6diesel13query_builder7AsQuery8as_query
FN:33,_RNvXs3_NtNtCs3JGymTfL39z_7backend6schema22single_page_connectionNtB5_5tableNtNtCskl7I60Z50mh_6diesel12query_source5Table11primary_key
FN:33,_RNvXs3_NtNtCs3JGymTfL39z_7backend6schema22single_page_connectionNtB5_5tableNtNtCskl7I60Z50mh_6diesel12query_source5Table11all_columns
FN:33,_RNvXs4_NtNtCs3JGymTfL39z_7backend6schema22single_page_connectionNtB5_5tableNtNtCskl7I60Z50mh_6diesel12associations8HasTable5table
FN:33,_RNvXs5_NtNtCs3JGymTfL39z_7backend6schema22single_page_connectionNtB5_5tableNtNtNtNtCskl7I60Z50mh_6diesel13query_builder16update_statement6target16IntoUpdateTarget18into_update_target
FN:33,_RNvXININtNtCs3JGymTfL39z_7backend6schema22single_page_connectionsa_0ppENtB5_5tableINtNtNtNtCskl7I60Z50mh_6diesel12query_source8aliasing18field_alias_mapper48FieldAliasMapperAssociatedTypesDisjointnessTrickB17_ppE3mapB9_
FN:33,_RNvXININtNtCs3JGymTfL39z_7backend6schema22single_page_connectionsc_0pppENtB5_5tableINtNtNtCskl7I60Z50mh_6diesel12query_source5joins6JoinToINtB1m_4JoinpppEE11join_targetB9_
FN:33,_RNvXININtNtCs3JGymTfL39z_7backend6schema22single_page_connectionsd_0ppENtB5_5tableINtNtNtCskl7I60Z50mh_6diesel12query_source5joins6JoinToINtB1l_6JoinOnppEE11join_targetB9_
FN:33,_RNvXININtNtCs3JGymTfL39z_7backend6schema22single_page_connectionse_0ppppppppENtB5_5tableINtNtNtCskl7I60Z50mh_6diesel12query_source5joins6JoinToINtNtNtB1v_13query_builder16select_statement15SelectStatementINtNtB2m_11from_clause10FromClausepEpppppppEE11join_targetB9_
FN:33,_RNvXININtNtCs3JGymTfL39z_7backend6schema22single_page_connectionsf_0pppENtB5_5tableINtNtNtCskl7I60Z50mh_6diesel12query_source5joins6JoinToINtNtNtNtB1q_13query_builder16select_statement5boxed20BoxedSelectStatementINtNtB2j_11from_clause10FromClausepEppEE11join_targetB9_
FN:33,_RNvXININtNtCs3JGymTfL39z_7backend6schema22single_page_connectionsg_0pENtB5_5tableINtNtNtCskl7I60Z50mh_6diesel12query_source5joins6JoinToINtNtNtB1m_8aliasing5alias5AliaspEE11join_targetB9_
FN:33,_RNvXININtNtCs3JGymTfL39z_7backend6schema22single_page_connectionsh_0pENtB5_5tableINtNtCskl7I60Z50mh_6diesel10insertable10InsertablepE6valuesB9_
FN:33,_RNvXININtNtCs3JGymTfL39z_7backend6schema22single_page_connectionsi_0pERNtB5_5tableINtNtCskl7I60Z50mh_6diesel10insertable10InsertablepE6valuesB9_
FN:33,_RNvXININtNtCs3JGymTfL39z_7backend6schema22single_page_connectionsj_0pENtB5_5tableINtNtNtCskl7I60Z50mh_6diesel12query_source5joins6JoinToINtNtNtNtB1o_2pg13query_builder4only4OnlypEE11join_targetB9_
FN:33,_RNvXININtNtNtCs3JGymTfL39z_7backend6schema22single_page_connection7columnss0_0pENtB5_4starINtNtCskl7I60Z50mh_6diesel13query_builder13QueryFragmentpE8walk_astBb_
FN:35,_RNvXININtNtNtCs3JGymTfL39z_7backend6schema22single_page_connection7columnss4_0pENtB5_13connection_pkINtNtCskl7I60Z50mh_6diesel13query_builder13QueryFragmentpE8walk_astBb_
FN:35,_RNvXININtNtNtCs3JGymTfL39z_7backend6schema22single_page_connection7columnssf_0pENtB5_13connection_pkINtNtNtCskl7I60Z50mh_6diesel18expression_methods6eq_all5EqAllpE6eq_allBb_
FN:33,_RNvXININtNtNtCs3JGymTfL39z_7backend6schema22single_page_connection7columnssg_0pENtB5_13connection_pkINtNtNtCsgJAJTVk4Czu_4core3ops5arith3AddpE3addBb_
FN:33,_RNvXININtNtNtCs3JGymTfL39z_7backend6schema22single_page_connection7columnssh_0pENtB5_13connection_pkINtNtNtCsgJAJTVk4Czu_4core3ops5arith3SubpE3subBb_
FN:33,_RNvXININtNtNtCs3JGymTfL39z_7backend6schema22single_page_connection7columnssi_0pENtB5_13connection_pkINtNtNtCsgJAJTVk4Czu_4core3ops5arith3DivpE3divBb_
FN:33,_RNvXININtNtNtCs3JGymTfL39z_7backend6schema22single_page_connection7columnssj_0pENtB5_13connection_pkINtNtNtCsgJAJTVk4Czu_4core3ops5arith3MulpE3mulBb_
FN:36,_RNvXININtNtNtCs3JGymTfL39z_7backend6schema22single_page_connection7columnssn_0pENtB5_13connection_idINtNtCskl7I60Z50mh_6diesel13query_builder13QueryFragmentpE8walk_astBb_
FN:36,_RNvXININtNtNtCs3JGymTfL39z_7backend6schema22single_page_connection7columnssy_0pENtB5_13connection_idINtNtNtCskl7I60Z50mh_6diesel18expression_methods6eq_all5EqAllpE6eq_allBb_
FN:37,_RNvXININtNtNtCs3JGymTfL39z_7backend6schema22single_page_connection7columnssC_0pENtB5_10created_atINtNtCskl7I60Z50mh_6diesel13query_builder13QueryFragmentpE8walk_astBb_
FN:37,_RNvXININtNtNtCs3JGymTfL39z_7backend6schema22single_page_connection7columnssN_0pENtB5_10created_atINtNtNtCskl7I60Z50mh_6diesel18expression_methods6eq_all5EqAllpE6eq_allBb_
FN:33,_RNvXININtNtNtCs3JGymTfL39z_7backend6schema22single_page_connection7columnssO_0pENtB5_10created_atINtNtNtCsgJAJTVk4Czu_4core3ops5arith3AddpE3addBb_
FN:33,_RNvXININtNtNtCs3JGymTfL39z_7backend6schema22single_page_connection7columnssP_0pENtB5_10created_atINtNtNtCsgJAJTVk4Czu_4core3ops5arith3SubpE3subBb_
FN:38,_RNvXININtNtNtCs3JGymTfL39z_7backend6schema22single_page_connection7columnssT_0pENtB5_13incoming_pageINtNtCskl7I60Z50mh_6diesel13query_builder13QueryFragmentpE8walk_astBb_
FN:38,_RNvXININtNtNtCs3JGymTfL39z_7backend6schema22single_page_connection7columnss14_0pENtB5_13incoming_pageINtNtNtCskl7I60Z50mh_6diesel18expression_methods6eq_all5EqAllpE6eq_allBb_
FN:33,_RNvXININtNtNtCs3JGymTfL39z_7backend6schema22single_page_connection7columnss15_0pENtB5_13incoming_pageINtNtNtCsgJAJTVk4Czu_4core3ops5arith3AddpE3addBb_
FN:33,_RNvXININtNtNtCs3JGymTfL39z_7backend6schema22single_page_connection7columnss16_0pENtB5_13incoming_pageINtNtNtCsgJAJTVk4Czu_4core3ops5arith3SubpE3subBb_
FN:33,_RNvXININtNtNtCs3JGymTfL39z_7backend6schema22single_page_connection7columnss17_0pENtB5_13incoming_pageINtNtNtCsgJAJTVk4Czu_4core3ops5arith3DivpE3divBb_
FN:33,_RNvXININtNtNtCs3JGymTfL39z_7backend6schema22single_page_connection7columnss18_0pENtB5_13incoming_pageINtNtNtCsgJAJTVk4Czu_4core3ops5arith3MulpE3mulBb_
FN:39,_RNvXININtNtNtCs3JGymTfL39z_7backend6schema22single_page_connection7columnss1c_0pENtB5_13outgoing_pageINtNtCskl7I60Z50mh_6diesel13query_builder13QueryFragmentpE8walk_astBb_
FN:39,_RNvXININtNtNtCs3JGymTfL39z_7backend6schema22single_page_connection7columnss1n_0pENtB5_13outgoing_pageINtNtNtCskl7I60Z50mh_6diesel18expression_methods6eq_all5EqAllpE6eq_allBb_
FN:33,_RNvXININtNtNtCs3JGymTfL39z_7backend6schema22single_page_connection7columnss1o_0pENtB5_13outgoing_pageINtNtNtCsgJAJTVk4Czu_4core3ops5arith3AddpE3addBb_
FN:33,_RNvXININtNtNtCs3JGymTfL39z_7backend6schema22single_page_connection7columnss1p_0pENtB5_13outgoing_pageINtNtNtCsgJAJTVk4Czu_4core3ops5arith3SubpE3subBb_
FN:33,_RNvXININtNtNtCs3JGymTfL39z_7backend6schema22single_page_connection7columnss1q_0pENtB5_13outgoing_pageINtNtNtCsgJAJTVk4Czu_4core3ops5arith3DivpE3divBb_
FN:33,_RNvXININtNtNtCs3JGymTfL39z_7backend6schema22single_page_connection7columnss1r_0pENtB5_13outgoing_pageINtNtNtCsgJAJTVk4Czu_4core3ops5arith3MulpE3mulBb_
FN:43,_RNvMNtNtCs3JGymTfL39z_7backend6schema15spatial_ref_sysNtB2_5table4star
FN:43,_RNvXs_NtNtCs3JGymTfL39z_7backend6schema15spatial_ref_sysNtB4_5tableNtNtCskl7I60Z50mh_6diesel12query_source11QuerySource11from_clause
FN:43,_RNvXs_NtNtCs3JGymTfL39z_7backend6schema15spatial_ref_sysNtB4_5tableNtNtCskl7I60Z50mh_6diesel12query_source11QuerySource17default_selection
FN:43,_RNvXININtNtCs3JGymTfL39z_7backend6schema15spatial_ref_syss0_0pENtB5_5tableINtNtCskl7I60Z50mh_6diesel13query_builder13QueryFragmentpE8walk_astB9_
FN:43,_RNvXs2_NtNtCs3JGymTfL39z_7backend6schema15spatial_ref_sysNtB5_5tableNtNtCskl7I60Z50mh_6diesel13query_builder7AsQuery8as_query
FN:43,_RNvXs3_NtNtCs3JGymTfL39z_7backend6schema15spatial_ref_sysNtB5_5tableNtNtCskl7I60Z50mh_6diesel12query_source5Table11primary_key
FN:43,_RNvXs3_NtNtCs3JGymTfL39z_7backend6schema15spatial_ref_sysNtB5_5tableNtNtCskl7I60Z50mh_6diesel12query_source5Table11all_columns
FN:43,_RNvXs4_NtNtCs3JGymTfL39z_7backend6schema15spatial_ref_sysNtB5_5tableNtNtCskl7I60Z50mh_6diesel12associations8HasTable5table
FN:43,_RNvXs5_NtNtCs3JGymTfL39z_7backend6schema15spatial_ref_sysNtB5_5tableNtNtNtNtCskl7I60Z50mh_6diesel13query_builder16update_statement6target16IntoUpdateTarget18into_update_target
FN:43,_RNvXININtNtCs3JGymTfL39z_7backend6schema15spatial_ref_syssa_0ppENtB5_5tableINtNtNtNtCskl7I60Z50mh_6diesel12query_source8aliasing18field_alias_mapper48FieldAliasMapperAssociatedTypesDisjointnessTrickB10_ppE3mapB9_
FN:43,_RNvXININtNtCs3JGymTfL39z_7backend6schema15spatial_ref_syssc_0pppENtB5_5tableINtNtNtCskl7I60Z50mh_6diesel12query_source5joins6JoinToINtB1f_4JoinpppEE11join_targetB9_
FN:43,_RNvXININtNtCs3JGymTfL39z_7backend6schema15spatial_ref_syssd_0ppENtB5_5tableINtNtNtCskl7I60Z50mh_6diesel12query_source5joins6JoinToINtB1e_6JoinOnppEE11join_targetB9_
FN:43,_RNvXININtNtCs3JGymTfL39z_7backend6schema15spatial_ref_sysse_0ppppppppENtB5_5tableINtNtNtCskl7I60Z50mh_6diesel12query_source5joins6JoinToINtNtNtB1o_13query_builder16select_statement15SelectStatementINtNtB2f_11from_clause10FromClausepEpppppppEE11join_targetB9_
FN:43,_RNvXININtNtCs3JGymTfL39z_7backend6schema15spatial_ref_syssf_0pppENtB5_5tableINtNtNtCskl7I60Z50mh_6diesel12query_source5joins6JoinToINtNtNtNtB1j_13query_builder16select_statement5boxed20BoxedSelectStatementINtNtB2c_11from_clause10FromClausepEppEE11join_targetB9_
FN:43,_RNvXININtNtCs3JGymTfL39z_7backend6schema15spatial_ref_syssg_0pENtB5_5tableINtNtNtCskl7I60Z50mh_6diesel12query_source5joins6JoinToINtNtNtB1f_8aliasing5alias5AliaspEE11join_targetB9_
FN:43,_RNvXININtNtCs3JGymTfL39z_7backend6schema15spatial_ref_syssh_0pENtB5_5tableINtNtCskl7I60Z50mh_6diesel10insertable10InsertablepE6valuesB9_
FN:43,_RNvXININtNtCs3JGymTfL39z_7backend6schema15spatial_ref_syssi_0pERNtB5_5tableINtNtCskl7I60Z50mh_6diesel10insertable10InsertablepE6valuesB9_
FN:43,_RNvXININtNtCs3JGymTfL39z_7backend6schema15spatial_ref_syssj_0pENtB5_5tableINtNtNtCskl7I60Z50mh_6diesel12query_source5joins6JoinToINtNtNtNtB1h_2pg13query_builder4only4OnlypEE11join_targetB9_
FN:43,_RNvXININtNtNtCs3JGymTfL39z_7backend6schema15spatial_ref_sys7columnss0_0pENtB5_4starINtNtCskl7I60Z50mh_6diesel13query_builder13QueryFragmentpE8walk_astBb_
FN:45,_RNvXININtNtNtCs3JGymTfL39z_7backend6schema15spatial_ref_sys7columnss4_0pENtB5_4sridINtNtCskl7I60Z50mh_6diesel13query_builder13QueryFragmentpE8walk_astBb_
FN:45,_RNvXININtNtNtCs3JGymTfL39z_7backend6schema15spatial_ref_sys7columnssf_0pENtB5_4sridINtNtNtCskl7I60Z50mh_6diesel18expression_methods6eq_all5EqAllpE6eq_allBb_
FN:43,_RNvXININtNtNtCs3JGymTfL39z_7backend6schema15spatial_ref_sys7columnssg_0pENtB5_4sridINtNtNtCsgJAJTVk4Czu_4core3ops5arith3AddpE3addBb_
FN:43,_RNvXININtNtNtCs3JGymTfL39z_7backend6schema15spatial_ref_sys7columnssh_0pENtB5_4sridINtNtNtCsgJAJTVk4Czu_4core3ops5arith3SubpE3subBb_
FN:43,_RNvXININtNtNtCs3JGymTfL39z_7backend6schema15spatial_ref_sys7columnssi_0pENtB5_4sridINtNtNtCsgJAJTVk4Czu_4core3ops5arith3DivpE3divBb_
FN:43,_RNvXININtNtNtCs3JGymTfL39z_7backend6schema15spatial_ref_sys7columnssj_0pENtB5_4sridINtNtNtCsgJAJTVk4Czu_4core3ops5arith3MulpE3mulBb_
FN:47,_RNvXININtNtNtCs3JGymTfL39z_7backend6schema15spatial_ref_sys7columnssn_0pENtB5_9auth_nameINtNtCskl7I60Z50mh_6diesel13query_builder13QueryFragmentpE8walk_astBb_
FN:47,_RNvXININtNtNtCs3JGymTfL39z_7backend6schema15spatial_ref_sys7columnssy_0pENtB5_9auth_nameINtNtNtCskl7I60Z50mh_6diesel18expression_methods6eq_all5EqAllpE6eq_allBb_
FN:48,_RNvXININtNtNtCs3JGymTfL39z_7backend6schema15spatial_ref_sys7columnssD_0pENtB5_9auth_sridINtNtCskl7I60Z50mh_6diesel13query_builder13QueryFragmentpE8walk_astBb_
FN:48,_RNvXININtNtNtCs3JGymTfL39z_7backend6schema15spatial_ref_sys7columnssO_0pENtB5_9auth_sridINtNtNtCskl7I60Z50mh_6diesel18expression_methods6eq_all5EqAllpE6eq_allBb_
FN:43,_RNvXININtNtNtCs3JGymTfL39z_7backend6schema15spatial_ref_sys7columnssP_0pENtB5_9auth_sridINtNtNtCsgJAJTVk4Czu_4core3ops5arith3AddpE3addBb_
FN:43,_RNvXININtNtNtCs3JGymTfL39z_7backend6schema15spatial_ref_sys7columnssQ_0pENtB5_9auth_sridINtNtNtCsgJAJTVk4Czu_4core3ops5arith3SubpE3subBb_
FN:43,_RNvXININtNtNtCs3JGymTfL39z_7backend6schema15spatial_ref_sys7columnssR_0pENtB5_9auth_sridINtNtNtCsgJAJTVk4Czu_4core3ops5arith3DivpE3divBb_
FN:43,_RNvXININtNtNtCs3JGymTfL39z_7backend6schema15spatial_ref_sys7columnssS_0pENtB5_9auth_sridINtNtNtCsgJAJTVk4Czu_4core3ops5arith3MulpE3mulBb_
FN:50,_RNvXININtNtNtCs3JGymTfL39z_7backend6schema15spatial_ref_sys7columnssW_0pENtB5_6srtextINtNtCskl7I60Z50mh_6diesel13query_builder13QueryFragmentpE8walk_astBb_
FN:50,_RNvXININtNtNtCs3JGymTfL39z_7backend6schema15spatial_ref_sys7columnss17_0pENtB5_6srtextINtNtNtCskl7I60Z50mh_6diesel18expression_methods6eq_all5EqAllpE6eq_allBb_
FN:52,_RNvXININtNtNtCs3JGymTfL39z_7backend6schema15spatial_ref_sys7columnss1c_0pENtB5_9proj4textINtNtCskl7I60Z50mh_6diesel13query_builder13QueryFragmentpE8walk_astBb_
FN:52,_RNvXININtNtNtCs3JGymTfL39z_7backend6schema15spatial_ref_sys7columnss1n_0pENtB5_9proj4textINtNtNtCskl7I60Z50mh_6diesel18expression_methods6eq_all5EqAllpE6eq_allBb_
FN:56,_RNvMNtNtCs3JGymTfL39z_7backend6schema9temp_flowNtB2_5table4star
FN:56,_RNvXs_NtNtCs3JGymTfL39z_7backend6schema9temp_flowNtB4_5tableNtNtCskl7I60Z50mh_6diesel12query_source11QuerySource11from_clause
FN:56,_RNvXs_NtNtCs3JGymTfL39z_7backend6schema9temp_flowNtB4_5tableNtNtCskl7I60Z50mh_6diesel12query_source11QuerySource17default_selection
FN:56,_RNvXININtNtCs3JGymTfL39z_7backend6schema9temp_flows0_0pENtB5_5tableINtNtCskl7I60Z50mh_6diesel13query_builder13QueryFragmentpE8walk_astB9_
FN:56,_RNvXs2_NtNtCs3JGymTfL39z_7backend6schema9temp_flowNtB5_5tableNtNtCskl7I60Z50mh_6diesel13query_builder7AsQuery8as_query
FN:56,_RNvXs3_NtNtCs3JGymTfL39z_7backend6schema9temp_flowNtB5_5tableNtNtCskl7I60Z50mh_6diesel12query_source5Table11primary_key
FN:56,_RNvXs3_NtNtCs3JGymTfL39z_7backend6schema9temp_flowNtB5_5tableNtNtCskl7I60Z50mh_6diesel12query_source5Table11all_columns
FN:56,_RNvXs4_NtNtCs3JGymTfL39z_7backend6schema9temp_flowNtB5_5tableNtNtCskl7I60Z50mh_6diesel12associations8HasTable5table
FN:56,_RNvXs5_NtNtCs3JGymTfL39z_7backend6schema9temp_flowNtB5_5tableNtNtNtNtCskl7I60Z50mh_6diesel13query_builder16update_statement6target16IntoUpdateTarget18into_update_target
FN:56,_RNvXININtNtCs3JGymTfL39z_7backend6schema9temp_flowsa_0ppENtB5_5tableINtNtNtNtCskl7I60Z50mh_6diesel12query_source8aliasing18field_alias_mapper48FieldAliasMapperAssociatedTypesDisjointnessTrickBT_ppE3mapB9_
FN:56,_RNvXININtNtCs3JGymTfL39z_7backend6schema9temp_flowsc_0pppENtB5_5tableINtNtNtCskl7I60Z50mh_6diesel12query_source5joins6JoinToINtB18_4JoinpppEE11join_targetB9_
FN:56,_RNvXININtNtCs3JGymTfL39z_7backend6schema9temp_flowsd_0ppENtB5_5tableINtNtNtCskl7I60Z50mh_6diesel12query_source5joins6JoinToINtB17_6JoinOnppEE11join_targetB9_
FN:56,_RNvXININtNtCs3JGymTfL39z_7backend6schema9temp_flowse_0ppppppppENtB5_5tableINtNtNtCskl7I60Z50mh_6diesel12query_source5joins6JoinToINtNtNtB1h_13query_builder16select_statement15SelectStatementINtNtB28_11from_clause10FromClausepEpppppppEE11join_targetB9_
FN:56,_RNvXININtNtCs3JGymTfL39z_7backend6schema9temp_flowsf_0pppENtB5_5tableINtNtNtCskl7I60Z50mh_6diesel12query_source5joins6JoinToINtNtNtNtB1c_13query_builder16select_statement5boxed20BoxedSelectStatementINtNtB25_11from_clause10FromClausepEppEE11join_targetB9_
FN:56,_RNvXININtNtCs3JGymTfL39z_7backend6schema9temp_flowsg_0pENtB5_5tableINtNtNtCskl7I60Z50mh_6diesel12query_source5joins6JoinToINtNtNtB18_8aliasing5alias5AliaspEE11join_targetB9_
FN:56,_RNvXININtNtCs3JGymTfL39z_7backend6schema9temp_flowsh_0pENtB5_5tableINtNtCskl7I60Z50mh_6diesel10insertable10InsertablepE6valuesB9_
FN:56,_RNvXININtNtCs3JGymTfL39z_7backend6schema9temp_flowsi_0pERNtB5_5tableINtNtCskl7I60Z50mh_6diesel10insertable10InsertablepE6valuesB9_
FN:56,_RNvXININtNtCs3JGymTfL39z_7backend6schema9temp_flowsj_0pENtB5_5tableINtNtNtCskl7I60Z50mh_6diesel12query_source5joins6JoinToINtNtNtNtB1a_2pg13query_builder4only4OnlypEE11join_targetB9_
FN:56,_RNvXININtNtNtCs3JGymTfL39z_7backend6schema9temp_flow7columnss0_0pENtB5_4starINtNtCskl7I60Z50mh_6diesel13query_builder13QueryFragmentpE8walk_astBb_
FN:58,_RNvXININtNtNtCs3JGymTfL39z_7backend6schema9temp_flow7columnss4_0pENtB5_7flow_pkINtNtCskl7I60Z50mh_6diesel13query_builder13QueryFragmentpE8walk_astBb_
FN:58,_RNvXININtNtNtCs3JGymTfL39z_7backend6schema9temp_flow7columnssf_0pENtB5_7flow_pkINtNtNtCskl7I60Z50mh_6diesel18expression_methods6eq_all5EqAllpE6eq_allBb_
FN:56,_RNvXININtNtNtCs3JGymTfL39z_7backend6schema9temp_flow7columnssg_0pENtB5_7flow_pkINtNtNtCsgJAJTVk4Czu_4core3ops5arith3AddpE3addBb_
FN:56,_RNvXININtNtNtCs3JGymTfL39z_7backend6schema9temp_flow7columnssh_0pENtB5_7flow_pkINtNtNtCsgJAJTVk4Czu_4core3ops5arith3SubpE3subBb_
FN:56,_RNvXININtNtNtCs3JGymTfL39z_7backend6schema9temp_flow7columnssi_0pENtB5_7flow_pkINtNtNtCsgJAJTVk4Czu_4core3ops5arith3DivpE3divBb_
FN:56,_RNvXININtNtNtCs3JGymTfL39z_7backend6schema9temp_flow7columnssj_0pENtB5_7flow_pkINtNtNtCsgJAJTVk4Czu_4core3ops5arith3MulpE3mulBb_
FN:59,_RNvXININtNtNtCs3JGymTfL39z_7backend6schema9temp_flow7columnssn_0pENtB5_7flow_idINtNtCskl7I60Z50mh_6diesel13query_builder13QueryFragmentpE8walk_astBb_
FN:59,_RNvXININtNtNtCs3JGymTfL39z_7backend6schema9temp_flow7columnssy_0pENtB5_7flow_idINtNtNtCskl7I60Z50mh_6diesel18expression_methods6eq_all5EqAllpE6eq_allBb_
FN:60,_RNvXININtNtNtCs3JGymTfL39z_7backend6schema9temp_flow7columnssC_0pENtB5_4nameINtNtCskl7I60Z50mh_6diesel13query_builder13QueryFragmentpE8walk_astBb_
FN:60,_RNvXININtNtNtCs3JGymTfL39z_7backend6schema9temp_flow7columnssN_0pENtB5_4nameINtNtNtCskl7I60Z50mh_6diesel18expression_methods6eq_all5EqAllpE6eq_allBb_
FN:61,_RNvXININtNtNtCs3JGymTfL39z_7backend6schema9temp_flow7columnssR_0pENtB5_10created_atINtNtCskl7I60Z50mh_6diesel13query_builder13QueryFragmentpE8walk_astBb_
FN:61,_RNvXININtNtNtCs3JGymTfL39z_7backend6schema9temp_flow7columnss12_0pENtB5_10created_atINtNtNtCskl7I60Z50mh_6diesel18expression_methods6eq_all5EqAllpE6eq_allBb_
FN:56,_RNvXININtNtNtCs3JGymTfL39z_7backend6schema9temp_flow7columnss13_0pENtB5_10created_atINtNtNtCsgJAJTVk4Czu_4core3ops5arith3AddpE3addBb_
FN:56,_RNvXININtNtNtCs3JGymTfL39z_7backend6schema9temp_flow7columnss14_0pENtB5_10created_atINtNtNtCsgJAJTVk4Czu_4core3ops5arith3SubpE3subBb_
FN:62,_RNvXININtNtNtCs3JGymTfL39z_7backend6schema9temp_flow7columnss18_0pENtB5_4dataINtNtCskl7I60Z50mh_6diesel13query_builder13QueryFragmentpE8walk_astBb_
FN:62,_RNvXININtNtNtCs3JGymTfL39z_7backend6schema9temp_flow7columnss1j_0pENtB5_4dataINtNtNtCskl7I60Z50mh_6diesel18expression_methods6eq_all5EqAllpE6eq_allBb_
FN:25,_RNvXs4_NtNtNtCs3JGymTfL39z_7backend6schema5pages7columnsNtB5_7page_pkINtNtCskl7I60Z50mh_6diesel13query_builder13QueryFragmentNtNtNtB1a_2pg7backend2PgE8walk_astBb_
FN:26,_RNvXsn_NtNtNtCs3JGymTfL39z_7backend6schema5pages7columnsNtB5_7page_idINtNtCskl7I60Z50mh_6diesel13query_builder13QueryFragmentNtNtNtB1a_2pg7backend2PgE8walk_astBb_
FN:27,_RNvXsC_NtNtNtCs3JGymTfL39z_7backend6schema5pages7columnsNtB5_4nameINtNtCskl7I60Z50mh_6diesel13query_builder13QueryFragmentNtNtNtB17_2pg7backend2PgE8walk_astBb_
FN:28,_RNvXsR_NtNtNtCs3JGymTfL39z_7backend6schema5pages7columnsNtB5_10created_atINtNtCskl7I60Z50mh_6diesel13query_builder13QueryFragmentNtNtNtB1e_2pg7backend2PgE8walk_astBb_
FNDA:26,_RNvXs_NtNtCs3JGymTfL39z_7backend6schema5pagesNtB4_5tableNtNtCskl7I60Z50mh_6diesel12query_source11QuerySource11from_clause
FNDA:11,_RNvXs_NtNtCs3JGymTfL39z_7backend6schema5pagesNtB4_5tableNtNtCskl7I60Z50mh_6diesel12query_source11QuerySource17default_selection
FNDA:11,_RNvXs2_NtNtCs3JGymTfL39z_7backend6schema5pagesNtB5_5tableNtNtCskl7I60Z50mh_6diesel13query_builder7AsQuery8as_query
FNDA:11,_RNvXs3_NtNtCs3JGymTfL39z_7backend6schema5pagesNtB5_5tableNtNtCskl7I60Z50mh_6diesel12query_source5Table11all_columns
FNDA:5,_RNvXs4_NtNtCs3JGymTfL39z_7backend6schema5pagesNtB5_5tableNtNtCskl7I60Z50mh_6diesel12associations8HasTable5table
FNDA:0,_RNvMNtNtCs3JGymTfL39z_7backend6schema5formsNtB2_5table4star
FNDA:0,_RNvXs_NtNtCs3JGymTfL39z_7backend6schema5formsNtB4_5tableNtNtCskl7I60Z50mh_6diesel12query_source11QuerySource11from_clause
FNDA:0,_RNvXs_NtNtCs3JGymTfL39z_7backend6schema5formsNtB4_5tableNtNtCskl7I60Z50mh_6diesel12query_source11QuerySource17default_selection
FNDA:0,_RNvXININtNtCs3JGymTfL39z_7backend6schema5formss0_0pENtB5_5tableINtNtCskl7I60Z50mh_6diesel13query_builder13QueryFragmentpE8walk_astB9_
FNDA:0,_RNvXs2_NtNtCs3JGymTfL39z_7backend6schema5formsNtB5_5tableNtNtCskl7I60Z50mh_6diesel13query_builder7AsQuery8as_query
FNDA:0,_RNvXs3_NtNtCs3JGymTfL39z_7backend6schema5formsNtB5_5tableNtNtCskl7I60Z50mh_6diesel12query_source5Table11primary_key
FNDA:0,_RNvXs3_NtNtCs3JGymTfL39z_7backend6schema5formsNtB5_5tableNtNtCskl7I60Z50mh_6diesel12query_source5Table11all_columns
FNDA:0,_RNvXs4_NtNtCs3JGymTfL39z_7backend6schema5formsNtB5_5tableNtNtCskl7I60Z50mh_6diesel12associations8HasTable5table
FNDA:0,_RNvXs5_NtNtCs3JGymTfL39z_7backend6schema5formsNtB5_5tableNtNtNtNtCskl7I60Z50mh_6diesel13query_builder16update_statement6target16IntoUpdateTarget18into_update_target
FNDA:0,_RNvXININtNtCs3JGymTfL39z_7backend6schema5formssa_0ppENtB5_5tableINtNtNtNtCskl7I60Z50mh_6diesel12query_source8aliasing18field_alias_mapper48FieldAliasMapperAssociatedTypesDisjointnessTrickBP_ppE3mapB9_
FNDA:0,_RNvXININtNtCs3JGymTfL39z_7backend6schema5formssc_0pppENtB5_5tableINtNtNtCskl7I60Z50mh_6diesel12query_source5joins6JoinToINtB14_4JoinpppEE11join_targetB9_
FNDA:0,_RNvXININtNtCs3JGymTfL39z_7backend6schema5formssd_0ppENtB5_5tableINtNtNtCskl7I60Z50mh_6diesel12query_source5joins6JoinToINtB13_6JoinOnppEE11join_targetB9_
FNDA:0,_RNvXININtNtCs3JGymTfL39z_7backend6schema5formsse_0ppppppppENtB5_5tableINtNtNtCskl7I60Z50mh_6diesel12query_source5joins6JoinToINtNtNtB1d_13query_builder16select_statement15SelectStatementINtNtB24_11from_clause10FromClausepEpppppppEE11join_targetB9_
FNDA:0,_RNvXININtNtCs3JGymTfL39z_7backend6schema5formssf_0pppENtB5_5tableINtNtNtCskl7I60Z50mh_6diesel12query_source5joins6JoinToINtNtNtNtB18_13query_builder16select_statement5boxed20BoxedSelectStatementINtNtB21_11from_clause10FromClausepEppEE11join_targetB9_
FNDA:0,_RNvXININtNtCs3JGymTfL39z_7backend6schema5formssg_0pENtB5_5tableINtNtNtCskl7I60Z50mh_6diesel12query_source5joins6JoinToINtNtNtB14_8aliasing5alias5AliaspEE11join_targetB9_
FNDA:0,_RNvXININtNtCs3JGymTfL39z_7backend6schema5formssh_0pENtB5_5tableINtNtCskl7I60Z50mh_6diesel10insertable10InsertablepE6valuesB9_
FNDA:0,_RNvXININtNtCs3JGymTfL39z_7backend6schema5formssi_0pERNtB5_5tableINtNtCskl7I60Z50mh_6diesel10insertable10InsertablepE6valuesB9_
FNDA:0,_RNvXININtNtCs3JGymTfL39z_7backend6schema5formssj_0pENtB5_5tableINtNtNtCskl7I60Z50mh_6diesel12query_source5joins6JoinToINtNtNtNtB16_2pg13query_builder4only4OnlypEE11join_targetB9_
FNDA:0,_RNvXININtNtNtCs3JGymTfL39z_7backend6schema5forms7columnss0_0pENtB5_4starINtNtCskl7I60Z50mh_6diesel13query_builder13QueryFragmentpE8walk_astBb_
FNDA:0,_RNvXININtNtNtCs3JGymTfL39z_7backend6schema5forms7columnss4_0pENtB5_7form_pkINtNtCskl7I60Z50mh_6diesel13query_builder13QueryFragmentpE8walk_astBb_
FNDA:0,_RNvXININtNtNtCs3JGymTfL39z_7backend6schema5forms7columnssf_0pENtB5_7form_pkINtNtNtCskl7I60Z50mh_6diesel18expression_methods6eq_all5EqAllpE6eq_allBb_
FNDA:0,_RNvXININtNtNtCs3JGymTfL39z_7backend6schema5forms7columnssg_0pENtB5_7form_pkINtNtNtCsgJAJTVk4Czu_4core3ops5arith3AddpE3addBb_
FNDA:0,_RNvXININtNtNtCs3JGymTfL39z_7backend6schema5forms7columnssh_0pENtB5_7form_pkINtNtNtCsgJAJTVk4Czu_4core3ops5arith3SubpE3subBb_
FNDA:0,_RNvXININtNtNtCs3JGymTfL39z_7backend6schema5forms7columnssi_0pENtB5_7form_pkINtNtNtCsgJAJTVk4Czu_4core3ops5arith3DivpE3divBb_
FNDA:0,_RNvXININtNtNtCs3JGymTfL39z_7backend6schema5forms7columnssj_0pENtB5_7form_pkINtNtNtCsgJAJTVk4Czu_4core3ops5arith3MulpE3mulBb_
FNDA:0,_RNvXININtNtNtCs3JGymTfL39z_7backend6schema5forms7columnssn_0pENtB5_7form_idINtNtCskl7I60Z50mh_6diesel13query_builder13QueryFragmentpE8walk_astBb_
FNDA:0,_RNvXININtNtNtCs3JGymTfL39z_7backend6schema5forms7columnssy_0pENtB5_7form_idINtNtNtCskl7I60Z50mh_6diesel18expression_methods6eq_all5EqAllpE6eq_allBb_
FNDA:0,_RNvXININtNtNtCs3JGymTfL39z_7backend6schema5forms7columnssC_0pENtB5_4nameINtNtCskl7I60Z50mh_6diesel13query_builder13QueryFragmentpE8walk_astBb_
FNDA:0,_RNvXININtNtNtCs3JGymTfL39z_7backend6schema5forms7columnssN_0pENtB5_4nameINtNtNtCskl7I60Z50mh_6diesel18expression_methods6eq_all5EqAllpE6eq_allBb_
FNDA:0,_RNvXININtNtNtCs3JGymTfL39z_7backend6schema5forms7columnssR_0pENtB5_10created_atINtNtCskl7I60Z50mh_6diesel13query_builder13QueryFragmentpE8walk_astBb_
FNDA:0,_RNvXININtNtNtCs3JGymTfL39z_7backend6schema5forms7columnss12_0pENtB5_10created_atINtNtNtCskl7I60Z50mh_6diesel18expression_methods6eq_all5EqAllpE6eq_allBb_
FNDA:0,_RNvXININtNtNtCs3JGymTfL39z_7backend6schema5forms7columnss13_0pENtB5_10created_atINtNtNtCsgJAJTVk4Czu_4core3ops5arith3AddpE3addBb_
FNDA:0,_RNvXININtNtNtCs3JGymTfL39z_7backend6schema5forms7columnss14_0pENtB5_10created_atINtNtNtCsgJAJTVk4Czu_4core3ops5arith3SubpE3subBb_
FNDA:0,_RNvXININtNtNtCs3JGymTfL39z_7backend6schema5forms7columnss18_0pENtB5_4dataINtNtCskl7I60Z50mh_6diesel13query_builder13QueryFragmentpE8walk_astBb_
FNDA:0,_RNvXININtNtNtCs3JGymTfL39z_7backend6schema5forms7columnss1j_0pENtB5_4dataINtNtNtCskl7I60Z50mh_6diesel18expression_methods6eq_all5EqAllpE6eq_allBb_
FNDA:0,_RNvMNtNtCs3JGymTfL39z_7backend6schema7layoutsNtB2_5table4star
FNDA:0,_RNvXs_NtNtCs3JGymTfL39z_7backend6schema7layoutsNtB4_5tableNtNtCskl7I60Z50mh_6diesel12query_source11QuerySource11from_clause
FNDA:0,_RNvXs_NtNtCs3JGymTfL39z_7backend6schema7layoutsNtB4_5tableNtNtCskl7I60Z50mh_6diesel12query_source11QuerySource17default_selection
FNDA:0,_RNvXININtNtCs3JGymTfL39z_7backend6schema7layoutss0_0pENtB5_5tableINtNtCskl7I60Z50mh_6diesel13query_builder13QueryFragmentpE8walk_astB9_
FNDA:0,_RNvXs2_NtNtCs3JGymTfL39z_7backend6schema7layoutsNtB5_5tableNtNtCskl7I60Z50mh_6diesel13query_builder7AsQuery8as_query
FNDA:0,_RNvXs3_NtNtCs3JGymTfL39z_7backend6schema7layoutsNtB5_5tableNtNtCskl7I60Z50mh_6diesel12query_source5Table11primary_key
FNDA:0,_RNvXs3_NtNtCs3JGymTfL39z_7backend6schema7layoutsNtB5_5tableNtNtCskl7I60Z50mh_6diesel12query_source5Table11all_columns
FNDA:0,_RNvXs4_NtNtCs3JGymTfL39z_7backend6schema7layoutsNtB5_5tableNtNtCskl7I60Z50mh_6diesel12associations8HasTable5table
FNDA:0,_RNvXs5_NtNtCs3JGymTfL39z_7backend6schema7layoutsNtB5_5tableNtNtNtNtCskl7I60Z50mh_6diesel13query_builder16update_statement6target16IntoUpdateTarget18into_update_target
FNDA:0,_RNvXININtNtCs3JGymTfL39z_7backend6schema7layoutssa_0ppENtB5_5tableINtNtNtNtCskl7I60Z50mh_6diesel12query_source8aliasing18field_alias_mapper48FieldAliasMapperAssociatedTypesDisjointnessTrickBR_ppE3mapB9_
FNDA:0,_RNvXININtNtCs3JGymTfL39z_7backend6schema7layoutssc_0pppENtB5_5tableINtNtNtCskl7I60Z50mh_6diesel12query_source5joins6JoinToINtB16_4JoinpppEE11join_targetB9_
FNDA:0,_RNvXININtNtCs3JGymTfL39z_7backend6schema7layoutssd_0ppENtB5_5tableINtNtNtCskl7I60Z50mh_6diesel12query_source5joins6JoinToINtB15_6JoinOnppEE11join_targetB9_
FNDA:0,_RNvXININtNtCs3JGymTfL39z_7backend6schema7layoutsse_0ppppppppENtB5_5tableINtNtNtCskl7I60Z50mh_6diesel12query_source5joins6JoinToINtNtNtB1f_13query_builder16select_statement15SelectStatementINtNtB26_11from_clause10FromClausepEpppppppEE11join_targetB9_
FNDA:0,_RNvXININtNtCs3JGymTfL39z_7backend6schema7layoutssf_0pppENtB5_5tableINtNtNtCskl7I60Z50mh_6diesel12query_source5joins6JoinToINtNtNtNtB1a_13query_builder16select_statement5boxed20BoxedSelectStatementINtNtB23_11from_clause10FromClausepEppEE11join_targetB9_
FNDA:0,_RNvXININtNtCs3JGymTfL39z_7backend6schema7layoutssg_0pENtB5_5tableINtNtNtCskl7I60Z50mh_6diesel12query_source5joins6JoinToINtNtNtB16_8aliasing5alias5AliaspEE11join_targetB9_
FNDA:0,_RNvXININtNtCs3JGymTfL39z_7backend6schema7layoutssh_0pENtB5_5tableINtNtCskl7I60Z50mh_6diesel10insertable10InsertablepE6valuesB9_
FNDA:0,_RNvXININtNtCs3JGymTfL39z_7backend6schema7layoutssi_0pERNtB5_5tableINtNtCskl7I60Z50mh_6diesel10insertable10InsertablepE6valuesB9_
FNDA:0,_RNvXININtNtCs3JGymTfL39z_7backend6schema7layoutssj_0pENtB5_5tableINtNtNtCskl7I60Z50mh_6diesel12query_source5joins6JoinToINtNtNtNtB18_2pg13query_builder4only4OnlypEE11join_targetB9_
FNDA:0,_RNvXININtNtNtCs3JGymTfL39z_7backend6schema7layouts7columnss0_0pENtB5_4starINtNtCskl7I60Z50mh_6diesel13query_builder13QueryFragmentpE8walk_astBb_
FNDA:0,_RNvXININtNtNtCs3JGymTfL39z_7backend6schema7layouts7columnss4_0pENtB5_9layout_pkINtNtCskl7I60Z50mh_6diesel13query_builder13QueryFragmentpE8walk_astBb_
FNDA:0,_RNvXININtNtNtCs3JGymTfL39z_7backend6schema7layouts7columnssf_0pENtB5_9layout_pkINtNtNtCskl7I60Z50mh_6diesel18expression_methods6eq_all5EqAllpE6eq_allBb_
FNDA:0,_RNvXININtNtNtCs3JGymTfL39z_7backend6schema7layouts7columnssg_0pENtB5_9layout_pkINtNtNtCsgJAJTVk4Czu_4core3ops5arith3AddpE3addBb_
FNDA:0,_RNvXININtNtNtCs3JGymTfL39z_7backend6schema7layouts7columnssh_0pENtB5_9layout_pkINtNtNtCsgJAJTVk4Czu_4core3ops5arith3SubpE3subBb_
FNDA:0,_RNvXININtNtNtCs3JGymTfL39z_7backend6schema7layouts7columnssi_0pENtB5_9layout_pkINtNtNtCsgJAJTVk4Czu_4core3ops5arith3DivpE3divBb_
FNDA:0,_RNvXININtNtNtCs3JGymTfL39z_7backend6schema7layouts7columnssj_0pENtB5_9layout_pkINtNtNtCsgJAJTVk4Czu_4core3ops5arith3MulpE3mulBb_
FNDA:0,_RNvXININtNtNtCs3JGymTfL39z_7backend6schema7layouts7columnssn_0pENtB5_9layout_idINtNtCskl7I60Z50mh_6diesel13query_builder13QueryFragmentpE8walk_astBb_
FNDA:0,_RNvXININtNtNtCs3JGymTfL39z_7backend6schema7layouts7columnssy_0pENtB5_9layout_idINtNtNtCskl7I60Z50mh_6diesel18expression_methods6eq_all5EqAllpE6eq_allBb_
FNDA:0,_RNvXININtNtNtCs3JGymTfL39z_7backend6schema7layouts7columnssC_0pENtB5_4nameINtNtCskl7I60Z50mh_6diesel13query_builder13QueryFragmentpE8walk_astBb_
FNDA:0,_RNvXININtNtNtCs3JGymTfL39z_7backend6schema7layouts7columnssN_0pENtB5_4nameINtNtNtCskl7I60Z50mh_6diesel18expression_methods6eq_all5EqAllpE6eq_allBb_
FNDA:0,_RNvXININtNtNtCs3JGymTfL39z_7backend6schema7layouts7columnssR_0pENtB5_10created_atINtNtCskl7I60Z50mh_6diesel13query_builder13QueryFragmentpE8walk_astBb_
FNDA:0,_RNvXININtNtNtCs3JGymTfL39z_7backend6schema7layouts7columnss12_0pENtB5_10created_atINtNtNtCskl7I60Z50mh_6diesel18expression_methods6eq_all5EqAllpE6eq_allBb_
FNDA:0,_RNvXININtNtNtCs3JGymTfL39z_7backend6schema7layouts7columnss13_0pENtB5_10created_atINtNtNtCsgJAJTVk4Czu_4core3ops5arith3AddpE3addBb_
FNDA:0,_RNvXININtNtNtCs3JGymTfL39z_7backend6schema7layouts7columnss14_0pENtB5_10created_atINtNtNtCsgJAJTVk4Czu_4core3ops5arith3SubpE3subBb_
FNDA:0,_RNvXININtNtNtCs3JGymTfL39z_7backend6schema7layouts7columnss18_0pENtB5_4dataINtNtCskl7I60Z50mh_6diesel13query_builder13QueryFragmentpE8walk_astBb_
FNDA:0,_RNvXININtNtNtCs3JGymTfL39z_7backend6schema7layouts7columnss1j_0pENtB5_4dataINtNtNtCskl7I60Z50mh_6diesel18expression_methods6eq_all5EqAllpE6eq_allBb_
FNDA:0,_RNvMNtNtCs3JGymTfL39z_7backend6schema5pagesNtB2_5table4star
FNDA:0,_RNvXININtNtCs3JGymTfL39z_7backend6schema5pagess0_0pENtB5_5tableINtNtCskl7I60Z50mh_6diesel13query_builder13QueryFragmentpE8walk_astB9_
FNDA:0,_RNvXs3_NtNtCs3JGymTfL39z_7backend6schema5pagesNtB5_5tableNtNtCskl7I60Z50mh_6diesel12query_source5Table11primary_key
FNDA:0,_RNvXs5_NtNtCs3JGymTfL39z_7backend6schema5pagesNtB5_5tableNtNtNtNtCskl7I60Z50mh_6diesel13query_builder16update_statement6target16IntoUpdateTarget18into_update_target
FNDA:0,_RNvXININtNtCs3JGymTfL39z_7backend6schema5pagessa_0ppENtB5_5tableINtNtNtNtCskl7I60Z50mh_6diesel12query_source8aliasing18field_alias_mapper48FieldAliasMapperAssociatedTypesDisjointnessTrickBP_ppE3mapB9_
FNDA:0,_RNvXININtNtCs3JGymTfL39z_7backend6schema5pagessc_0pppENtB5_5tableINtNtNtCskl7I60Z50mh_6diesel12query_source5joins6JoinToINtB14_4JoinpppEE11join_targetB9_
FNDA:0,_RNvXININtNtCs3JGymTfL39z_7backend6schema5pagessd_0ppENtB5_5tableINtNtNtCskl7I60Z50mh_6diesel12query_source5joins6JoinToINtB13_6JoinOnppEE11join_targetB9_
FNDA:0,_RNvXININtNtCs3JGymTfL39z_7backend6schema5pagesse_0ppppppppENtB5_5tableINtNtNtCskl7I60Z50mh_6diesel12query_source5joins6JoinToINtNtNtB1d_13query_builder16select_statement15SelectStatementINtNtB24_11from_clause10FromClausepEpppppppEE11join_targetB9_
FNDA:0,_RNvXININtNtCs3JGymTfL39z_7backend6schema5pagessf_0pppENtB5_5tableINtNtNtCskl7I60Z50mh_6diesel12query_source5joins6JoinToINtNtNtNtB18_13query_builder16select_statement5boxed20BoxedSelectStatementINtNtB21_11from_clause10FromClausepEppEE11join_targetB9_
FNDA:0,_RNvXININtNtCs3JGymTfL39z_7backend6schema5pagessg_0pENtB5_5tableINtNtNtCskl7I60Z50mh_6diesel12query_source5joins6JoinToINtNtNtB14_8aliasing5alias5AliaspEE11join_targetB9_
FNDA:0,_RNvXININtNtCs3JGymTfL39z_7backend6schema5pagessh_0pENtB5_5tableINtNtCskl7I60Z50mh_6diesel10insertable10InsertablepE6valuesB9_
FNDA:0,_RNvXININtNtCs3JGymTfL39z_7backend6schema5pagessi_0pERNtB5_5tableINtNtCskl7I60Z50mh_6diesel10insertable10InsertablepE6valuesB9_
FNDA:0,_RNvXININtNtCs3JGymTfL39z_7backend6schema5pagessj_0pENtB5_5tableINtNtNtCskl7I60Z50mh_6diesel12query_source5joins6JoinToINtNtNtNtB16_2pg13query_builder4only4OnlypEE11join_targetB9_
FNDA:0,_RNvXININtNtNtCs3JGymTfL39z_7backend6schema5pages7columnss0_0pENtB5_4starINtNtCskl7I60Z50mh_6diesel13query_builder13QueryFragmentpE8walk_astBb_
FNDA:0,_RNvXININtNtNtCs3JGymTfL39z_7backend6schema5pages7columnssf_0pENtB5_7page_pkINtNtNtCskl7I60Z50mh_6diesel18expression_methods6eq_all5EqAllpE6eq_allBb_
FNDA:0,_RNvXININtNtNtCs3JGymTfL39z_7backend6schema5pages7columnssg_0pENtB5_7page_pkINtNtNtCsgJAJTVk4Czu_4core3ops5arith3AddpE3addBb_
FNDA:0,_RNvXININtNtNtCs3JGymTfL39z_7backend6schema5pages7columnssh_0pENtB5_7page_pkINtNtNtCsgJAJTVk4Czu_4core3ops5arith3SubpE3subBb_
FNDA:0,_RNvXININtNtNtCs3JGymTfL39z_7backend6schema5pages7columnssi_0pENtB5_7page_pkINtNtNtCsgJAJTVk4Czu_4core3ops5arith3DivpE3divBb_
FNDA:0,_RNvXININtNtNtCs3JGymTfL39z_7backend6schema5pages7columnssj_0pENtB5_7page_pkINtNtNtCsgJAJTVk4Czu_4core3ops5arith3MulpE3mulBb_
FNDA:0,_RNvXININtNtNtCs3JGymTfL39z_7backend6schema5pages7columnssy_0pENtB5_7page_idINtNtNtCskl7I60Z50mh_6diesel18expression_methods6eq_all5EqAllpE6eq_allBb_
FNDA:0,_RNvXININtNtNtCs3JGymTfL39z_7backend6schema5pages7columnssN_0pENtB5_4nameINtNtNtCskl7I60Z50mh_6diesel18expression_methods6eq_all5EqAllpE6eq_allBb_
FNDA:0,_RNvXININtNtNtCs3JGymTfL39z_7backend6schema5pages7columnss12_0pENtB5_10created_atINtNtNtCskl7I60Z50mh_6diesel18expression_methods6eq_all5EqAllpE6eq_allBb_
FNDA:0,_RNvXININtNtNtCs3JGymTfL39z_7backend6schema5pages7columnss13_0pENtB5_10created_atINtNtNtCsgJAJTVk4Czu_4core3ops5arith3AddpE3addBb_
FNDA:0,_RNvXININtNtNtCs3JGymTfL39z_7backend6schema5pages7columnss14_0pENtB5_10created_atINtNtNtCsgJAJTVk4Czu_4core3ops5arith3SubpE3subBb_
FNDA:0,_RNvXININtNtNtCs3JGymTfL39z_7backend6schema5pages7columnss18_0pENtB5_4dataINtNtCskl7I60Z50mh_6diesel13query_builder13QueryFragmentpE8walk_astBb_
FNDA:0,_RNvXININtNtNtCs3JGymTfL39z_7backend6schema5pages7columnss1j_0pENtB5_4dataINtNtNtCskl7I60Z50mh_6diesel18expression_methods6eq_all5EqAllpE6eq_allBb_
FNDA:0,_RNvMNtNtCs3JGymTfL39z_7backend6schema22single_page_connectionNtB2_5table4star
FNDA:0,_RNvXs_NtNtCs3JGymTfL39z_7backend6schema22single_page_connectionNtB4_5tableNtNtCskl7I60Z50mh_6diesel12query_source11QuerySource11from_clause
FNDA:0,_RNvXs_NtNtCs3JGymTfL39z_7backend6schema22single_page_connectionNtB4_5tableNtNtCskl7I60Z50mh_6diesel12query_source11QuerySource17default_selection
FNDA:0,_RNvXININtNtCs3JGymTfL39z_7backend6schema22single_page_connections0_0pENtB5_5tableINtNtCskl7I60Z50mh_6diesel13query_builder13QueryFragmentpE8walk_astB9_
FNDA:0,_RNvXs2_NtNtCs3JGymTfL39z_7backend6schema22single_page_connectionNtB5_5tableNtNtCskl7I60Z50mh_6diesel13query_builder7AsQuery8as_query
FNDA:0,_RNvXs3_NtNtCs3JGymTfL39z_7backend6schema22single_page_connectionNtB5_5tableNtNtCskl7I60Z50mh_6diesel12query_source5Table11primary_key
FNDA:0,_RNvXs3_NtNtCs3JGymTfL39z_7backend6schema22single_page_connectionNtB5_5tableNtNtCskl7I60Z50mh_6diesel12query_source5Table11all_columns
FNDA:0,_RNvXs4_NtNtCs3JGymTfL39z_7backend6schema22single_page_connectionNtB5_5tableNtNtCskl7I60Z50mh_6diesel12associations8HasTable5table
FNDA:0,_RNvXs5_NtNtCs3JGymTfL39z_7backend6schema22single_page_connectionNtB5_5tableNtNtNtNtCskl7I60Z50mh_6diesel13query_builder16update_statement6target16IntoUpdateTarget18into_update_target
FNDA:0,_RNvXININtNtCs3JGymTfL39z_7backend6schema22single_page_connectionsa_0ppENtB5_5tableINtNtNtNtCskl7I60Z50mh_6diesel12query_source8aliasing18field_alias_mapper48FieldAliasMapperAssociatedTypesDisjointnessTrickB17_ppE3mapB9_
FNDA:0,_RNvXININtNtCs3JGymTfL39z_7backend6schema22single_page_connectionsc_0pppENtB5_5tableINtNtNtCskl7I60Z50mh_6diesel12query_source5joins6JoinToINtB1m_4JoinpppEE11join_targetB9_
FNDA:0,_RNvXININtNtCs3JGymTfL39z_7backend6schema22single_page_connectionsd_0ppENtB5_5tableINtNtNtCskl7I60Z50mh_6diesel12query_source5joins6JoinToINtB1l_6JoinOnppEE11join_targetB9_
FNDA:0,_RNvXININtNtCs3JGymTfL39z_7backend6schema22single_page_connectionse_0ppppppppENtB5_5tableINtNtNtCskl7I60Z50mh_6diesel12query_source5joins6JoinToINtNtNtB1v_13query_builder16select_statement15SelectStatementINtNtB2m_11from_clause10FromClausepEpppppppEE11join_targetB9_
FNDA:0,_RNvXININtNtCs3JGymTfL39z_7backend6schema22single_page_connectionsf_0pppENtB5_5tableINtNtNtCskl7I60Z50mh_6diesel12query_source5joins6JoinToINtNtNtNtB1q_13query_builder16select_statement5boxed20BoxedSelectStatementINtNtB2j_11from_clause10FromClausepEppEE11join_targetB9_
FNDA:0,_RNvXININtNtCs3JGymTfL39z_7backend6schema22single_page_connectionsg_0pENtB5_5tableINtNtNtCskl7I60Z50mh_6diesel12query_source5joins6JoinToINtNtNtB1m_8aliasing5alias5AliaspEE11join_targetB9_
FNDA:0,_RNvXININtNtCs3JGymTfL39z_7backend6schema22single_page_connectionsh_0pENtB5_5tableINtNtCskl7I60Z50mh_6diesel10insertable10InsertablepE6valuesB9_
FNDA:0,_RNvXININtNtCs3JGymTfL39z_7backend6schema22single_page_connectionsi_0pERNtB5_5tableINtNtCskl7I60Z50mh_6diesel10insertable10InsertablepE6valuesB9_
FNDA:0,_RNvXININtNtCs3JGymTfL39z_7backend6schema22single_page_connectionsj_0pENtB5_5tableINtNtNtCskl7I60Z50mh_6diesel12query_source5joins6JoinToINtNtNtNtB1o_2pg13query_builder4only4OnlypEE11join_targetB9_
FNDA:0,_RNvXININtNtNtCs3JGymTfL39z_7backend6schema22single_page_connection7columnss0_0pENtB5_4starINtNtCskl7I60Z50mh_6diesel13query_builder13QueryFragmentpE8walk_astBb_
FNDA:0,_RNvXININtNtNtCs3JGymTfL39z_7backend6schema22single_page_connection7columnss4_0pENtB5_13connection_pkINtNtCskl7I60Z50mh_6diesel13query_builder13QueryFragmentpE8walk_astBb_
FNDA:0,_RNvXININtNtNtCs3JGymTfL39z_7backend6schema22single_page_connection7columnssf_0pENtB5_13connection_pkINtNtNtCskl7I60Z50mh_6diesel18expression_methods6eq_all5EqAllpE6eq_allBb_
FNDA:0,_RNvXININtNtNtCs3JGymTfL39z_7backend6schema22single_page_connection7columnssg_0pENtB5_13connection_pkINtNtNtCsgJAJTVk4Czu_4core3ops5arith3AddpE3addBb_
FNDA:0,_RNvXININtNtNtCs3JGymTfL39z_7backend6schema22single_page_connection7columnssh_0pENtB5_13connection_pkINtNtNtCsgJAJTVk4Czu_4core3ops5arith3SubpE3subBb_
FNDA:0,_RNvXININtNtNtCs3JGymTfL39z_7backend6schema22single_page_connection7columnssi_0pENtB5_13connection_pkINtNtNtCsgJAJTVk4Czu_4core3ops5arith3DivpE3divBb_
FNDA:0,_RNvXININtNtNtCs3JGymTfL39z_7backend6schema22single_page_connection7columnssj_0pENtB5_13connection_pkINtNtNtCsgJAJTVk4Czu_4core3ops5arith3MulpE3mulBb_
FNDA:0,_RNvXININtNtNtCs3JGymTfL39z_7backend6schema22single_page_connection7columnssn_0pENtB5_13connection_idINtNtCskl7I60Z50mh_6diesel13query_builder13QueryFragmentpE8walk_astBb_
FNDA:0,_RNvXININtNtNtCs3JGymTfL39z_7backend6schema22single_page_connection7columnssy_0pENtB5_13connection_idINtNtNtCskl7I60Z50mh_6diesel18expression_methods6eq_all5EqAllpE6eq_allBb_
FNDA:0,_RNvXININtNtNtCs3JGymTfL39z_7backend6schema22single_page_connection7columnssC_0pENtB5_10created_atINtNtCskl7I60Z50mh_6diesel13query_builder13QueryFragmentpE8walk_astBb_
FNDA:0,_RNvXININtNtNtCs3JGymTfL39z_7backend6schema22single_page_connection7columnssN_0pENtB5_10created_atINtNtNtCskl7I60Z50mh_6diesel18expression_methods6eq_all5EqAllpE6eq_allBb_
FNDA:0,_RNvXININtNtNtCs3JGymTfL39z_7backend6schema22single_page_connection7columnssO_0pENtB5_10created_atINtNtNtCsgJAJTVk4Czu_4core3ops5arith3AddpE3addBb_
FNDA:0,_RNvXININtNtNtCs3JGymTfL39z_7backend6schema22single_page_connection7columnssP_0pENtB5_10created_atINtNtNtCsgJAJTVk4Czu_4core3ops5arith3SubpE3subBb_
FNDA:0,_RNvXININtNtNtCs3JGymTfL39z_7backend6schema22single_page_connection7columnssT_0pENtB5_13incoming_pageINtNtCskl7I60Z50mh_6diesel13query_builder13QueryFragmentpE8walk_astBb_
FNDA:0,_RNvXININtNtNtCs3JGymTfL39z_7backend6schema22single_page_connection7columnss14_0pENtB5_13incoming_pageINtNtNtCskl7I60Z50mh_6diesel18expression_methods6eq_all5EqAllpE6eq_allBb_
FNDA:0,_RNvXININtNtNtCs3JGymTfL39z_7backend6schema22single_page_connection7columnss15_0pENtB5_13incoming_pageINtNtNtCsgJAJTVk4Czu_4core3ops5arith3AddpE3addBb_
FNDA:0,_RNvXININtNtNtCs3JGymTfL39z_7backend6schema22single_page_connection7columnss16_0pENtB5_13incoming_pageINtNtNtCsgJAJTVk4Czu_4core3ops5arith3SubpE3subBb_
FNDA:0,_RNvXININtNtNtCs3JGymTfL39z_7backend6schema22single_page_connection7columnss17_0pENtB5_13incoming_pageINtNtNtCsgJAJTVk4Czu_4core3ops5arith3DivpE3divBb_
FNDA:0,_RNvXININtNtNtCs3JGymTfL39z_7backend6schema22single_page_connection7columnss18_0pENtB5_13incoming_pageINtNtNtCsgJAJTVk4Czu_4core3ops5arith3MulpE3mulBb_
FNDA:0,_RNvXININtNtNtCs3JGymTfL39z_7backend6schema22single_page_connection7columnss1c_0pENtB5_13outgoing_pageINtNtCskl7I60Z50mh_6diesel13query_builder13QueryFragmentpE8walk_astBb_
FNDA:0,_RNvXININtNtNtCs3JGymTfL39z_7backend6schema22single_page_connection7columnss1n_0pENtB5_13outgoing_pageINtNtNtCskl7I60Z50mh_6diesel18expression_methods6eq_all5EqAllpE6eq_allBb_
FNDA:0,_RNvXININtNtNtCs3JGymTfL39z_7backend6schema22single_page_connection7columnss1o_0pENtB5_13outgoing_pageINtNtNtCsgJAJTVk4Czu_4core3ops5arith3AddpE3addBb_
FNDA:0,_RNvXININtNtNtCs3JGymTfL39z_7backend6schema22single_page_connection7columnss1p_0pENtB5_13outgoing_pageINtNtNtCsgJAJTVk4Czu_4core3ops5arith3SubpE3subBb_
FNDA:0,_RNvXININtNtNtCs3JGymTfL39z_7backend6schema22single_page_connection7columnss1q_0pENtB5_13outgoing_pageINtNtNtCsgJAJTVk4Czu_4core3ops5arith3DivpE3divBb_
FNDA:0,_RNvXININtNtNtCs3JGymTfL39z_7backend6schema22single_page_connection7columnss1r_0pENtB5_13outgoing_pageINtNtNtCsgJAJTVk4Czu_4core3ops5arith3MulpE3mulBb_
FNDA:0,_RNvMNtNtCs3JGymTfL39z_7backend6schema15spatial_ref_sysNtB2_5table4star
FNDA:0,_RNvXs_NtNtCs3JGymTfL39z_7backend6schema15spatial_ref_sysNtB4_5tableNtNtCskl7I60Z50mh_6diesel12query_source11QuerySource11from_clause
FNDA:0,_RNvXs_NtNtCs3JGymTfL39z_7backend6schema15spatial_ref_sysNtB4_5tableNtNtCskl7I60Z50mh_6diesel12query_source11QuerySource17default_selection
FNDA:0,_RNvXININtNtCs3JGymTfL39z_7backend6schema15spatial_ref_syss0_0pENtB5_5tableINtNtCskl7I60Z50mh_6diesel13query_builder13QueryFragmentpE8walk_astB9_
FNDA:0,_RNvXs2_NtNtCs3JGymTfL39z_7backend6schema15spatial_ref_sysNtB5_5tableNtNtCskl7I60Z50mh_6diesel13query_builder7AsQuery8as_query
FNDA:0,_RNvXs3_NtNtCs3JGymTfL39z_7backend6schema15spatial_ref_sysNtB5_5tableNtNtCskl7I60Z50mh_6diesel12query_source5Table11primary_key
FNDA:0,_RNvXs3_NtNtCs3JGymTfL39z_7backend6schema15spatial_ref_sysNtB5_5tableNtNtCskl7I60Z50mh_6diesel12query_source5Table11all_columns
FNDA:0,_RNvXs4_NtNtCs3JGymTfL39z_7backend6schema15spatial_ref_sysNtB5_5tableNtNtCskl7I60Z50mh_6diesel12associations8HasTable5table
FNDA:0,_RNvXs5_NtNtCs3JGymTfL39z_7backend6schema15spatial_ref_sysNtB5_5tableNtNtNtNtCskl7I60Z50mh_6diesel13query_builder16update_statement6target16IntoUpdateTarget18into_update_target
FNDA:0,_RNvXININtNtCs3JGymTfL39z_7backend6schema15spatial_ref_syssa_0ppENtB5_5tableINtNtNtNtCskl7I60Z50mh_6diesel12query_source8aliasing18field_alias_mapper48FieldAliasMapperAssociatedTypesDisjointnessTrickB10_ppE3mapB9_
FNDA:0,_RNvXININtNtCs3JGymTfL39z_7backend6schema15spatial_ref_syssc_0pppENtB5_5tableINtNtNtCskl7I60Z50mh_6diesel12query_source5joins6JoinToINtB1f_4JoinpppEE11join_targetB9_
FNDA:0,_RNvXININtNtCs3JGymTfL39z_7backend6schema15spatial_ref_syssd_0ppENtB5_5tableINtNtNtCskl7I60Z50mh_6diesel12query_source5joins6JoinToINtB1e_6JoinOnppEE11join_targetB9_
FNDA:0,_RNvXININtNtCs3JGymTfL39z_7backend6schema15spatial_ref_sysse_0ppppppppENtB5_5tableINtNtNtCskl7I60Z50mh_6diesel12query_source5joins6JoinToINtNtNtB1o_13query_builder16select_statement15SelectStatementINtNtB2f_11from_clause10FromClausepEpppppppEE11join_targetB9_
FNDA:0,_RNvXININtNtCs3JGymTfL39z_7backend6schema15spatial_ref_syssf_0pppENtB5_5tableINtNtNtCskl7I60Z50mh_6diesel12query_source5joins6JoinToINtNtNtNtB1j_13query_builder16select_statement5boxed20BoxedSelectStatementINtNtB2c_11from_clause10FromClausepEppEE11join_targetB9_
FNDA:0,_RNvXININtNtCs3JGymTfL39z_7backend6schema15spatial_ref_syssg_0pENtB5_5tableINtNtNtCskl7I60Z50mh_6diesel12query_source5joins6JoinToINtNtNtB1f_8aliasing5alias5AliaspEE11join_targetB9_
FNDA:0,_RNvXININtNtCs3JGymTfL39z_7backend6schema15spatial_ref_syssh_0pENtB5_5tableINtNtCskl7I60Z50mh_6diesel10insertable10InsertablepE6valuesB9_
FNDA:0,_RNvXININtNtCs3JGymTfL39z_7backend6schema15spatial_ref_syssi_0pERNtB5_5tableINtNtCskl7I60Z50mh_6diesel10insertable10InsertablepE6valuesB9_
FNDA:0,_RNvXININtNtCs3JGymTfL39z_7backend6schema15spatial_ref_syssj_0pENtB5_5tableINtNtNtCskl7I60Z50mh_6diesel12query_source5joins6JoinToINtNtNtNtB1h_2pg13query_builder4only4OnlypEE11join_targetB9_
FNDA:0,_RNvXININtNtNtCs3JGymTfL39z_7backend6schema15spatial_ref_sys7columnss0_0pENtB5_4starINtNtCskl7I60Z50mh_6diesel13query_builder13QueryFragmentpE8walk_astBb_
FNDA:0,_RNvXININtNtNtCs3JGymTfL39z_7backend6schema15spatial_ref_sys7columnss4_0pENtB5_4sridINtNtCskl7I60Z50mh_6diesel13query_builder13QueryFragmentpE8walk_astBb_
FNDA:0,_RNvXININtNtNtCs3JGymTfL39z_7backend6schema15spatial_ref_sys7columnssf_0pENtB5_4sridINtNtNtCskl7I60Z50mh_6diesel18expression_methods6eq_all5EqAllpE6eq_allBb_
FNDA:0,_RNvXININtNtNtCs3JGymTfL39z_7backend6schema15spatial_ref_sys7columnssg_0pENtB5_4sridINtNtNtCsgJAJTVk4Czu_4core3ops5arith3AddpE3addBb_
FNDA:0,_RNvXININtNtNtCs3JGymTfL39z_7backend6schema15spatial_ref_sys7columnssh_0pENtB5_4sridINtNtNtCsgJAJTVk4Czu_4core3ops5arith3SubpE3subBb_
FNDA:0,_RNvXININtNtNtCs3JGymTfL39z_7backend6schema15spatial_ref_sys7columnssi_0pENtB5_4sridINtNtNtCsgJAJTVk4Czu_4core3ops5arith3DivpE3divBb_
FNDA:0,_RNvXININtNtNtCs3JGymTfL39z_7backend6schema15spatial_ref_sys7columnssj_0pENtB5_4sridINtNtNtCsgJAJTVk4Czu_4core3ops5arith3MulpE3mulBb_
FNDA:0,_RNvXININtNtNtCs3JGymTfL39z_7backend6schema15spatial_ref_sys7columnssn_0pENtB5_9auth_nameINtNtCskl7I60Z50mh_6diesel13query_builder13QueryFragmentpE8walk_astBb_
FNDA:0,_RNvXININtNtNtCs3JGymTfL39z_7backend6schema15spatial_ref_sys7columnssy_0pENtB5_9auth_nameINtNtNtCskl7I60Z50mh_6diesel18expression_methods6eq_all5EqAllpE6eq_allBb_
FNDA:0,_RNvXININtNtNtCs3JGymTfL39z_7backend6schema15spatial_ref_sys7columnssD_0pENtB5_9auth_sridINtNtCskl7I60Z50mh_6diesel13query_builder13QueryFragmentpE8walk_astBb_
FNDA:0,_RNvXININtNtNtCs3JGymTfL39z_7backend6schema15spatial_ref_sys7columnssO_0pENtB5_9auth_sridINtNtNtCskl7I60Z50mh_6diesel18expression_methods6eq_all5EqAllpE6eq_allBb_
FNDA:0,_RNvXININtNtNtCs3JGymTfL39z_7backend6schema15spatial_ref_sys7columnssP_0pENtB5_9auth_sridINtNtNtCsgJAJTVk4Czu_4core3ops5arith3AddpE3addBb_
FNDA:0,_RNvXININtNtNtCs3JGymTfL39z_7backend6schema15spatial_ref_sys7columnssQ_0pENtB5_9auth_sridINtNtNtCsgJAJTVk4Czu_4core3ops5arith3SubpE3subBb_
FNDA:0,_RNvXININtNtNtCs3JGymTfL39z_7backend6schema15spatial_ref_sys7columnssR_0pENtB5_9auth_sridINtNtNtCsgJAJTVk4Czu_4core3ops5arith3DivpE3divBb_
FNDA:0,_RNvXININtNtNtCs3JGymTfL39z_7backend6schema15spatial_ref_sys7columnssS_0pENtB5_9auth_sridINtNtNtCsgJAJTVk4Czu_4core3ops5arith3MulpE3mulBb_
FNDA:0,_RNvXININtNtNtCs3JGymTfL39z_7backend6schema15spatial_ref_sys7columnssW_0pENtB5_6srtextINtNtCskl7I60Z50mh_6diesel13query_builder13QueryFragmentpE8walk_astBb_
FNDA:0,_RNvXININtNtNtCs3JGymTfL39z_7backend6schema15spatial_ref_sys7columnss17_0pENtB5_6srtextINtNtNtCskl7I60Z50mh_6diesel18expression_methods6eq_all5EqAllpE6eq_allBb_
FNDA:0,_RNvXININtNtNtCs3JGymTfL39z_7backend6schema15spatial_ref_sys7columnss1c_0pENtB5_9proj4textINtNtCskl7I60Z50mh_6diesel13query_builder13QueryFragmentpE8walk_astBb_
FNDA:0,_RNvXININtNtNtCs3JGymTfL39z_7backend6schema15spatial_ref_sys7columnss1n_0pENtB5_9proj4textINtNtNtCskl7I60Z50mh_6diesel18expression_methods6eq_all5EqAllpE6eq_allBb_
FNDA:0,_RNvMNtNtCs3JGymTfL39z_7backend6schema9temp_flowNtB2_5table4star
FNDA:0,_RNvXs_NtNtCs3JGymTfL39z_7backend6schema9temp_flowNtB4_5tableNtNtCskl7I60Z50mh_6diesel12query_source11QuerySource11from_clause
FNDA:0,_RNvXs_NtNtCs3JGymTfL39z_7backend6schema9temp_flowNtB4_5tableNtNtCskl7I60Z50mh_6diesel12query_source11QuerySource17default_selection
FNDA:0,_RNvXININtNtCs3JGymTfL39z_7backend6schema9temp_flows0_0pENtB5_5tableINtNtCskl7I60Z50mh_6diesel13query_builder13QueryFragmentpE8walk_astB9_
FNDA:0,_RNvXs2_NtNtCs3JGymTfL39z_7backend6schema9temp_flowNtB5_5tableNtNtCskl7I60Z50mh_6diesel13query_builder7AsQuery8as_query
FNDA:0,_RNvXs3_NtNtCs3JGymTfL39z_7backend6schema9temp_flowNtB5_5tableNtNtCskl7I60Z50mh_6diesel12query_source5Table11primary_key
FNDA:0,_RNvXs3_NtNtCs3JGymTfL39z_7backend6schema9temp_flowNtB5_5tableNtNtCskl7I60Z50mh_6diesel12query_source5Table11all_columns
FNDA:0,_RNvXs4_NtNtCs3JGymTfL39z_7backend6schema9temp_flowNtB5_5tableNtNtCskl7I60Z50mh_6diesel12associations8HasTable5table
FNDA:0,_RNvXs5_NtNtCs3JGymTfL39z_7backend6schema9temp_flowNtB5_5tableNtNtNtNtCskl7I60Z50mh_6diesel13query_builder16update_statement6target16IntoUpdateTarget18into_update_target
FNDA:0,_RNvXININtNtCs3JGymTfL39z_7backend6schema9temp_flowsa_0ppENtB5_5tableINtNtNtNtCskl7I60Z50mh_6diesel12query_source8aliasing18field_alias_mapper48FieldAliasMapperAssociatedTypesDisjointnessTrickBT_ppE3mapB9_
FNDA:0,_RNvXININtNtCs3JGymTfL39z_7backend6schema9temp_flowsc_0pppENtB5_5tableINtNtNtCskl7I60Z50mh_6diesel12query_source5joins6JoinToINtB18_4JoinpppEE11join_targetB9_
FNDA:0,_RNvXININtNtCs3JGymTfL39z_7backend6schema9temp_flowsd_0ppENtB5_5tableINtNtNtCskl7I60Z50mh_6diesel12query_source5joins6JoinToINtB17_6JoinOnppEE11join_targetB9_
FNDA:0,_RNvXININtNtCs3JGymTfL39z_7backend6schema9temp_flowse_0ppppppppENtB5_5tableINtNtNtCskl7I60Z50mh_6diesel12query_source5joins6JoinToINtNtNtB1h_13query_builder16select_statement15SelectStatementINtNtB28_11from_clause10FromClausepEpppppppEE11join_targetB9_
FNDA:0,_RNvXININtNtCs3JGymTfL39z_7backend6schema9temp_flowsf_0pppENtB5_5tableINtNtNtCskl7I60Z50mh_6diesel12query_source5joins6JoinToINtNtNtNtB1c_13query_builder16select_statement5boxed20BoxedSelectStatementINtNtB25_11from_clause10FromClausepEppEE11join_targetB9_
FNDA:0,_RNvXININtNtCs3JGymTfL39z_7backend6schema9temp_flowsg_0pENtB5_5tableINtNtNtCskl7I60Z50mh_6diesel12query_source5joins6JoinToINtNtNtB18_8aliasing5alias5AliaspEE11join_targetB9_
FNDA:0,_RNvXININtNtCs3JGymTfL39z_7backend6schema9temp_flowsh_0pENtB5_5tableINtNtCskl7I60Z50mh_6diesel10insertable10InsertablepE6valuesB9_
FNDA:0,_RNvXININtNtCs3JGymTfL39z_7backend6schema9temp_flowsi_0pERNtB5_5tableINtNtCskl7I60Z50mh_6diesel10insertable10InsertablepE6valuesB9_
FNDA:0,_RNvXININtNtCs3JGymTfL39z_7backend6schema9temp_flowsj_0pENtB5_5tableINtNtNtCskl7I60Z50mh_6diesel12query_source5joins6JoinToINtNtNtNtB1a_2pg13query_builder4only4OnlypEE11join_targetB9_
FNDA:0,_RNvXININtNtNtCs3JGymTfL39z_7backend6schema9temp_flow7columnss0_0pENtB5_4starINtNtCskl7I60Z50mh_6diesel13query_builder13QueryFragmentpE8walk_astBb_
FNDA:0,_RNvXININtNtNtCs3JGymTfL39z_7backend6schema9temp_flow7columnss4_0pENtB5_7flow_pkINtNtCskl7I60Z50mh_6diesel13query_builder13QueryFragmentpE8walk_astBb_
FNDA:0,_RNvXININtNtNtCs3JGymTfL39z_7backend6schema9temp_flow7columnssf_0pENtB5_7flow_pkINtNtNtCskl7I60Z50mh_6diesel18expression_methods6eq_all5EqAllpE6eq_allBb_
FNDA:0,_RNvXININtNtNtCs3JGymTfL39z_7backend6schema9temp_flow7columnssg_0pENtB5_7flow_pkINtNtNtCsgJAJTVk4Czu_4core3ops5arith3AddpE3addBb_
FNDA:0,_RNvXININtNtNtCs3JGymTfL39z_7backend6schema9temp_flow7columnssh_0pENtB5_7flow_pkINtNtNtCsgJAJTVk4Czu_4core3ops5arith3SubpE3subBb_
FNDA:0,_RNvXININtNtNtCs3JGymTfL39z_7backend6schema9temp_flow7columnssi_0pENtB5_7flow_pkINtNtNtCsgJAJTVk4Czu_4core3ops5arith3DivpE3divBb_
FNDA:0,_RNvXININtNtNtCs3JGymTfL39z_7backend6schema9temp_flow7columnssj_0pENtB5_7flow_pkINtNtNtCsgJAJTVk4Czu_4core3ops5arith3MulpE3mulBb_
FNDA:0,_RNvXININtNtNtCs3JGymTfL39z_7backend6schema9temp_flow7columnssn_0pENtB5_7flow_idINtNtCskl7I60Z50mh_6diesel13query_builder13QueryFragmentpE8walk_astBb_
FNDA:0,_RNvXININtNtNtCs3JGymTfL39z_7backend6schema9temp_flow7columnssy_0pENtB5_7flow_idINtNtNtCskl7I60Z50mh_6diesel18expression_methods6eq_all5EqAllpE6eq_allBb_
FNDA:0,_RNvXININtNtNtCs3JGymTfL39z_7backend6schema9temp_flow7columnssC_0pENtB5_4nameINtNtCskl7I60Z50mh_6diesel13query_builder13QueryFragmentpE8walk_astBb_
FNDA:0,_RNvXININtNtNtCs3JGymTfL39z_7backend6schema9temp_flow7columnssN_0pENtB5_4nameINtNtNtCskl7I60Z50mh_6diesel18expression_methods6eq_all5EqAllpE6eq_allBb_
FNDA:0,_RNvXININtNtNtCs3JGymTfL39z_7backend6schema9temp_flow7columnssR_0pENtB5_10created_atINtNtCskl7I60Z50mh_6diesel13query_builder13QueryFragmentpE8walk_astBb_
FNDA:0,_RNvXININtNtNtCs3JGymTfL39z_7backend6schema9temp_flow7columnss12_0pENtB5_10created_atINtNtNtCskl7I60Z50mh_6diesel18expression_methods6eq_all5EqAllpE6eq_allBb_
FNDA:0,_RNvXININtNtNtCs3JGymTfL39z_7backend6schema9temp_flow7columnss13_0pENtB5_10created_atINtNtNtCsgJAJTVk4Czu_4core3ops5arith3AddpE3addBb_
FNDA:0,_RNvXININtNtNtCs3JGymTfL39z_7backend6schema9temp_flow7columnss14_0pENtB5_10created_atINtNtNtCsgJAJTVk4Czu_4core3ops5arith3SubpE3subBb_
FNDA:0,_RNvXININtNtNtCs3JGymTfL39z_7backend6schema9temp_flow7columnss18_0pENtB5_4dataINtNtCskl7I60Z50mh_6diesel13query_builder13QueryFragmentpE8walk_astBb_
FNDA:0,_RNvXININtNtNtCs3JGymTfL39z_7backend6schema9temp_flow7columnss1j_0pENtB5_4dataINtNtNtCskl7I60Z50mh_6diesel18expression_methods6eq_all5EqAllpE6eq_allBb_
FNDA:96,_RNvXs4_NtNtNtCs3JGymTfL39z_7backend6schema5pages7columnsNtB5_7page_pkINtNtCskl7I60Z50mh_6diesel13query_builder13QueryFragmentNtNtNtB1a_2pg7backend2PgE8walk_astBb_
FNDA:112,_RNvXsn_NtNtNtCs3JGymTfL39z_7backend6schema5pages7columnsNtB5_7page_idINtNtCskl7I60Z50mh_6diesel13query_builder13QueryFragmentNtNtNtB1a_2pg7backend2PgE8walk_astBb_
FNDA:88,_RNvXsC_NtNtNtCs3JGymTfL39z_7backend6schema5pages7columnsNtB5_4nameINtNtCskl7I60Z50mh_6diesel13query_builder13QueryFragmentNtNtNtB17_2pg7backend2PgE8walk_astBb_
FNDA:88,_RNvXsR_NtNtNtCs3JGymTfL39z_7backend6schema5pages7columnsNtB5_10created_atINtNtCskl7I60Z50mh_6diesel13query_builder13QueryFragmentNtNtNtB1e_2pg7backend2PgE8walk_astBb_
FNF:36
FNH:5
DA:3,0
DA:4,0
DA:5,0
DA:6,0
DA:7,0
DA:8,0
DA:9,0
DA:10,0
DA:11,0
DA:13,0
DA:14,0
DA:15,0
DA:16,0
DA:17,0
DA:18,0
DA:19,0
DA:20,0
DA:21,0
DA:23,0
DA:24,64
DA:25,96
DA:26,112
DA:27,88
DA:28,88
DA:29,64
DA:30,64
DA:31,64
DA:33,0
DA:34,0
DA:35,0
DA:36,0
DA:37,0
DA:38,0
DA:39,0
DA:40,0
DA:41,0
DA:43,0
DA:44,0
DA:45,0
DA:46,0
DA:47,0
DA:48,0
DA:49,0
DA:50,0
DA:51,0
DA:52,0
DA:53,0
DA:54,0
DA:56,0
DA:57,0
DA:58,0
DA:59,0
DA:60,0
DA:61,0
DA:62,0
DA:63,0
DA:64,0
BRF:0
BRH:0
LF:87
LH:13
end_of_record